(lp0
(L779L
V36
p1
V\u6f4d\u574a\u519c\u5546\u94f6\u884c\u5f20\u78ca(86412933)  14:28:49\u000a \u51fa\u74e2\u866b1M-3M\u975e\u4fdd\u7406\u8d22\uff0c\u53ccT+0\uff0cPR2\u7ea7\uff0c\u6295\u5411\u6807\u51c6\u7eaf\u503a\uff0c\u4e0d\u51fa\u51fd\u53ef\u6e05\u5355, \u4ef7\u683c\u52b2\u7206\uff0c\u6b22\u8fce\u9a9a\u6270\u3002  \u6f4d\u574a\u519c\u5546\u884c  \u5f20\u78ca 0536-8660289
p2
V\u91d1\u989d
p3
L105L
L107L
L7L
tp4
a(L778L
V3M
p5
V\u6f4d\u574a\u519c\u5546\u94f6\u884c\u5f20\u78ca(86412933)  14:28:49\u000a \u51fa\u74e2\u866b1M-3M\u975e\u4fdd\u7406\u8d22\uff0c\u53ccT+0\uff0cPR2\u7ea7\uff0c\u6295\u5411\u6807\u51c6\u7eaf\u503a\uff0c\u4e0d\u51fa\u51fd\u53ef\u6e05\u5355, \u4ef7\u683c\u52b2\u7206\uff0c\u6b22\u8fce\u9a9a\u6270\u3002  \u6f4d\u574a\u519c\u5546\u884c  \u5f20\u78ca 0536-8660289
p6
V\u671f\u9650
p7
L49L
L51L
L3L
tp8
a(L776L
V\u6807\u51c6\u7eaf\u503a
p9
V\u6f4d\u574a\u519c\u5546\u94f6\u884c\u5f20\u78ca(86412933)  14:28:49\u000a \u51fa\u74e2\u866b1M-3M\u975e\u4fdd\u7406\u8d22\uff0c\u53ccT+0\uff0cPR2\u7ea7\uff0c\u6295\u5411\u6807\u51c6\u7eaf\u503a\uff0c\u4e0d\u51fa\u51fd\u53ef\u6e05\u5355, \u4ef7\u683c\u52b2\u7206\uff0c\u6b22\u8fce\u9a9a\u6270\u3002  \u6f4d\u574a\u519c\u5546\u884c  \u5f20\u78ca 0536-8660289
p10
V\u4ea7\u54c1
p11
L68L
L72L
L6L
tp12
a(L791L
V1M
p13
V\u8fde\u6c5f\u519c\u4fe1\u5f20\u5176\u6768(3085932024)  14:28:56\u000a \u8bda\u501f\u9694\u591c\u8d44\u91d12.4\u4ebf\u5143\uff01\u000a            7\u5929\u8d44\u91d12\u4ebf\u5143\uff01\u000a           1M\u8d44\u91d11\u4ebf\u5143 \uff01\u62bc\u5229\u7387\uff01
p14
V\u671f\u9650
p15
L89L
L91L
L5L
tp16
a(L790L
V\u000a            7\u5929
p17
V\u8fde\u6c5f\u519c\u4fe1\u5f20\u5176\u6768(3085932024)  14:28:56\u000a \u8bda\u501f\u9694\u591c\u8d44\u91d12.4\u4ebf\u5143\uff01\u000a            7\u5929\u8d44\u91d12\u4ebf\u5143\uff01\u000a           1M\u8d44\u91d11\u4ebf\u5143 \uff01\u62bc\u5229\u7387\uff01
p18
V\u671f\u9650
p19
L56L
L71L
L3L
tp20
a(L789L
V\u501f
p21
V\u8fde\u6c5f\u519c\u4fe1\u5f20\u5176\u6768(3085932024)  14:28:56\u000a \u8bda\u501f\u9694\u591c\u8d44\u91d12.4\u4ebf\u5143\uff01\u000a            7\u5929\u8d44\u91d12\u4ebf\u5143\uff01\u000a           1M\u8d44\u91d11\u4ebf\u5143 \uff01\u62bc\u5229\u7387\uff01
p22
V\u65b9\u5411
p23
L45L
L46L
L1L
tp24
a(L760L
V\u51fa
p25
V\u3010\u603b\u76d1\u3011\u6f4d\u574a\u519c\u5546\u94f6\u884c\u5f20\u78ca(86412933)  14:28:52\u000a \u51fa\u74e2\u866b1M-3M\u975e\u4fdd\u7406\u8d22\uff0c\u53ccT+0\uff0cPR2\u7ea7\uff0c\u6295\u5411\u6807\u51c6\u7eaf\u503a\uff0c\u4e0d\u51fa\u51fd\u53ef\u6e05\u5355, \u4ef7\u683c\u52b2\u7206\uff0c\u6b22\u8fce\u9a9a\u6270\u3002  \u6f4d\u574a\u519c\u5546\u884c  \u5f20\u78ca 0536-8660289
p26
V\u4ea7\u54c1
p27
L47L
L48L
L1L
tp28
a(L761L
V\u975e\u4fdd\u7406\u8d22
p29
V\u3010\u603b\u76d1\u3011\u6f4d\u574a\u519c\u5546\u94f6\u884c\u5f20\u78ca(86412933)  14:28:52\u000a \u51fa\u74e2\u866b1M-3M\u975e\u4fdd\u7406\u8d22\uff0c\u53ccT+0\uff0cPR2\u7ea7\uff0c\u6295\u5411\u6807\u51c6\u7eaf\u503a\uff0c\u4e0d\u51fa\u51fd\u53ef\u6e05\u5355, \u4ef7\u683c\u52b2\u7206\uff0c\u6b22\u8fce\u9a9a\u6270\u3002  \u6f4d\u574a\u519c\u5546\u884c  \u5f20\u78ca 0536-8660289
p30
V\u5229\u7387
p31
L55L
L59L
L2L
tp32
a(L777L
V1M
p33
V\u6f4d\u574a\u519c\u5546\u94f6\u884c\u5f20\u78ca(86412933)  14:28:49\u000a \u51fa\u74e2\u866b1M-3M\u975e\u4fdd\u7406\u8d22\uff0c\u53ccT+0\uff0cPR2\u7ea7\uff0c\u6295\u5411\u6807\u51c6\u7eaf\u503a\uff0c\u4e0d\u51fa\u51fd\u53ef\u6e05\u5355, \u4ef7\u683c\u52b2\u7206\uff0c\u6b22\u8fce\u9a9a\u6270\u3002  \u6f4d\u574a\u519c\u5546\u884c  \u5f20\u78ca 0536-8660289
p34
V\u671f\u9650
p35
L46L
L48L
L2L
tp36
a(L775L
V\u975e\u4fdd\u7406\u8d22
p37
V\u6f4d\u574a\u519c\u5546\u94f6\u884c\u5f20\u78ca(86412933)  14:28:49\u000a \u51fa\u74e2\u866b1M-3M\u975e\u4fdd\u7406\u8d22\uff0c\u53ccT+0\uff0cPR2\u7ea7\uff0c\u6295\u5411\u6807\u51c6\u7eaf\u503a\uff0c\u4e0d\u51fa\u51fd\u53ef\u6e05\u5355, \u4ef7\u683c\u52b2\u7206\uff0c\u6b22\u8fce\u9a9a\u6270\u3002  \u6f4d\u574a\u519c\u5546\u884c  \u5f20\u78ca 0536-8660289
p38
V\u4ea7\u54c1
p39
L51L
L55L
L4L
tp40
a(L774L
V\u000a \u51fa
p41
V\u6f4d\u574a\u519c\u5546\u94f6\u884c\u5f20\u78ca(86412933)  14:28:49\u000a \u51fa\u74e2\u866b1M-3M\u975e\u4fdd\u7406\u8d22\uff0c\u53ccT+0\uff0cPR2\u7ea7\uff0c\u6295\u5411\u6807\u51c6\u7eaf\u503a\uff0c\u4e0d\u51fa\u51fd\u53ef\u6e05\u5355, \u4ef7\u683c\u52b2\u7206\uff0c\u6b22\u8fce\u9a9a\u6270\u3002  \u6f4d\u574a\u519c\u5546\u884c  \u5f20\u78ca 0536-8660289
p42
V\u65b9\u5411
p43
L41L
L44L
L1L
tp44
a(L780L
VR2\u7ea7
p45
V\u6f4d\u574a\u519c\u5546\u94f6\u884c\u5f20\u78ca(86412933)  14:28:49\u000a \u51fa\u74e2\u866b1M-3M\u975e\u4fdd\u7406\u8d22\uff0c\u53ccT+0\uff0cPR2\u7ea7\uff0c\u6295\u5411\u6807\u51c6\u7eaf\u503a\uff0c\u4e0d\u51fa\u51fd\u53ef\u6e05\u5355, \u4ef7\u683c\u52b2\u7206\uff0c\u6b22\u8fce\u9a9a\u6270\u3002  \u6f4d\u574a\u519c\u5546\u884c  \u5f20\u78ca 0536-8660289
p46
V\u5229\u7387
p47
L62L
L65L
L5L
tp48
a(L781L
V\u975e\u4fdd\u7406\u8d22
p49
V\u3010\u603b\u76d1\u3011\u6f4d\u574a\u519c\u5546\u94f6\u884c\u5f20\u78ca(86412933)  14:28:52\u000a \u51fa\u74e2\u866b1M-3M\u975e\u4fdd\u7406\u8d22\uff0c\u53ccT+0\uff0cPR2\u7ea7\uff0c\u6295\u5411\u6807\u51c6\u7eaf\u503a\uff0c\u4e0d\u51fa\u51fd\u53ef\u6e05\u5355, \u4ef7\u683c\u52b2\u7206\uff0c\u6b22\u8fce\u9a9a\u6270\u3002  \u6f4d\u574a\u519c\u5546\u884c  \u5f20\u78ca 0536-8660289
p50
V\u4ea7\u54c1
p51
L55L
L59L
L2L
tp52
a(L782L
V\u6295\u5411\u6807\u51c6\u7eaf\u503a
p53
V\u3010\u603b\u76d1\u3011\u6f4d\u574a\u519c\u5546\u94f6\u884c\u5f20\u78ca(86412933)  14:28:52\u000a \u51fa\u74e2\u866b1M-3M\u975e\u4fdd\u7406\u8d22\uff0c\u53ccT+0\uff0cPR2\u7ea7\uff0c\u6295\u5411\u6807\u51c6\u7eaf\u503a\uff0c\u4e0d\u51fa\u51fd\u53ef\u6e05\u5355, \u4ef7\u683c\u52b2\u7206\uff0c\u6b22\u8fce\u9a9a\u6270\u3002  \u6f4d\u574a\u519c\u5546\u884c  \u5f20\u78ca 0536-8660289
p54
V\u4ea7\u54c1
p55
L70L
L76L
L4L
tp56
a(L783L
V1M
p57
V\u3010\u603b\u76d1\u3011\u6f4d\u574a\u519c\u5546\u94f6\u884c\u5f20\u78ca(86412933)  14:28:52\u000a \u51fa\u74e2\u866b1M-3M\u975e\u4fdd\u7406\u8d22\uff0c\u53ccT+0\uff0cPR2\u7ea7\uff0c\u6295\u5411\u6807\u51c6\u7eaf\u503a\uff0c\u4e0d\u51fa\u51fd\u53ef\u6e05\u5355, \u4ef7\u683c\u52b2\u7206\uff0c\u6b22\u8fce\u9a9a\u6270\u3002  \u6f4d\u574a\u519c\u5546\u884c  \u5f20\u78ca 0536-8660289
p58
V\u671f\u9650
p59
L50L
L52L
L1L
tp60
a(L784L
V89
p61
V\u3010\u603b\u76d1\u3011\u6f4d\u574a\u519c\u5546\u94f6\u884c\u5f20\u78ca(86412933)  14:28:52\u000a \u51fa\u74e2\u866b1M-3M\u975e\u4fdd\u7406\u8d22\uff0c\u53ccT+0\uff0cPR2\u7ea7\uff0c\u6295\u5411\u6807\u51c6\u7eaf\u503a\uff0c\u4e0d\u51fa\u51fd\u53ef\u6e05\u5355, \u4ef7\u683c\u52b2\u7206\uff0c\u6b22\u8fce\u9a9a\u6270\u3002  \u6f4d\u574a\u519c\u5546\u884c  \u5f20\u78ca 0536-8660289
p62
V\u91d1\u989d
p63
L117L
L119L
L5L
tp64
a(L785L
V\uff0cPR2\u7ea7
p65
V\u3010\u603b\u76d1\u3011\u6f4d\u574a\u519c\u5546\u94f6\u884c\u5f20\u78ca(86412933)  14:28:52\u000a \u51fa\u74e2\u866b1M-3M\u975e\u4fdd\u7406\u8d22\uff0c\u53ccT+0\uff0cPR2\u7ea7\uff0c\u6295\u5411\u6807\u51c6\u7eaf\u503a\uff0c\u4e0d\u51fa\u51fd\u53ef\u6e05\u5355, \u4ef7\u683c\u52b2\u7206\uff0c\u6b22\u8fce\u9a9a\u6270\u3002  \u6f4d\u574a\u519c\u5546\u884c  \u5f20\u78ca 0536-8660289
p66
V\u5229\u7387
p67
L64L
L69L
L3L
tp68
a(L793L
V2\u4ebf\u5143
p69
V\u8fde\u6c5f\u519c\u4fe1\u5f20\u5176\u6768(3085932024)  14:28:56\u000a \u8bda\u501f\u9694\u591c\u8d44\u91d12.4\u4ebf\u5143\uff01\u000a            7\u5929\u8d44\u91d12\u4ebf\u5143\uff01\u000a           1M\u8d44\u91d11\u4ebf\u5143 \uff01\u62bc\u5229\u7387\uff01
p70
V\u91d1\u989d
p71
L73L
L76L
L4L
tp72
a(L792L
V2.4\u4ebf\u5143
p73
V\u8fde\u6c5f\u519c\u4fe1\u5f20\u5176\u6768(3085932024)  14:28:56\u000a \u8bda\u501f\u9694\u591c\u8d44\u91d12.4\u4ebf\u5143\uff01\u000a            7\u5929\u8d44\u91d12\u4ebf\u5143\uff01\u000a           1M\u8d44\u91d11\u4ebf\u5143 \uff01\u62bc\u5229\u7387\uff01
p74
V\u91d1\u989d
p75
L50L
L55L
L2L
tp76
a(L794L
V1\u4ebf\u5143
p77
V\u8fde\u6c5f\u519c\u4fe1\u5f20\u5176\u6768(3085932024)  14:28:56\u000a \u8bda\u501f\u9694\u591c\u8d44\u91d12.4\u4ebf\u5143\uff01\u000a            7\u5929\u8d44\u91d12\u4ebf\u5143\uff01\u000a           1M\u8d44\u91d11\u4ebf\u5143 \uff01\u62bc\u5229\u7387\uff01
p78
V\u91d1\u989d
p79
L93L
L96L
L6L
tp80
a(L795L
V\u501f
p81
V\u836f\u90fd\u519c\u5546\u884c \u738b\u96e8\u5357(373348051)  14:29:15\u000a \u501f\u9694\u591c\u8d44\u91d14\u4ebf\u5143\uff0c\u62bc\u4e0a\u6e05\u5b58\u5355\uff0c\u4e0a\u5348\u65e9\u8fd8\u6b3e
p82
V\u65b9\u5411
p83
L45L
L46L
L1L
tp84
a(L796L
V\u5b58\u5355
p85
V\u836f\u90fd\u519c\u5546\u884c \u738b\u96e8\u5357(373348051)  14:29:15\u000a \u501f\u9694\u591c\u8d44\u91d14\u4ebf\u5143\uff0c\u62bc\u4e0a\u6e05\u5b58\u5355\uff0c\u4e0a\u5348\u65e9\u8fd8\u6b3e
p86
V\u4ea7\u54c1
p87
L57L
L59L
L3L
tp88
a(L797L
V4\u4ebf\u5143
p89
V\u836f\u90fd\u519c\u5546\u884c \u738b\u96e8\u5357(373348051)  14:29:15\u000a \u501f\u9694\u591c\u8d44\u91d14\u4ebf\u5143\uff0c\u62bc\u4e0a\u6e05\u5b58\u5355\uff0c\u4e0a\u5348\u65e9\u8fd8\u6b3e
p90
V\u91d1\u989d
p91
L50L
L53L
L2L
tp92
a(L798L
V\u6731
p93
V\u5357\u4eac\u94f6\u884c\u6731\u4e3d\u71d5(2238729759)  14:30:16\u000a \u8bda\u6536\u7ebf\u4e0b\u8de8\u6625\u8282\u8d44\u91d1
p94
V\u4ea7\u54c1
p95
L17L
L18L
L2L
tp96
a(L799L
V\u5357\u4eac
p97
V\u5357\u4eac\u94f6\u884c\u6731\u4e3d\u71d5(2238729759)  14:30:16\u000a \u8bda\u6536\u7ebf\u4e0b\u8de8\u6625\u8282\u8d44\u91d1
p98
V\u671f\u9650
p99
L13L
L15L
L1L
tp100
a(L800L
V\u51fa
p101
V\u6f4d\u574a\u519c\u5546\u5f20\u78ca(86412933)  14:29:35\u000a \u51fa\u74e2\u866b1M-3M\u975e\u4fdd\u7406\u8d22\uff0c\u53ccT+0\uff0cPR2\u7ea7\uff0c\u6295\u5411\u6807\u51c6\u7eaf\u503a\uff0c\u4e0d\u51fa\u51fd\u53ef\u6e05\u5355, \u4ef7\u683c\u52b2\u7206\uff0c\u6b22\u8fce\u9a9a\u6270\u3002  \u6f4d\u574a\u519c\u5546\u884c  \u5f20\u78ca 0536-8660289
p102
V\u65b9\u5411
p103
L41L
L42L
L1L
tp104
a(L801L
V\u975e\u4fdd\u7406\u8d22
p105
V\u6f4d\u574a\u519c\u5546\u5f20\u78ca(86412933)  14:29:35\u000a \u51fa\u74e2\u866b1M-3M\u975e\u4fdd\u7406\u8d22\uff0c\u53ccT+0\uff0cPR2\u7ea7\uff0c\u6295\u5411\u6807\u51c6\u7eaf\u503a\uff0c\u4e0d\u51fa\u51fd\u53ef\u6e05\u5355, \u4ef7\u683c\u52b2\u7206\uff0c\u6b22\u8fce\u9a9a\u6270\u3002  \u6f4d\u574a\u519c\u5546\u884c  \u5f20\u78ca 0536-8660289
p106
V\u4ea7\u54c1
p107
L49L
L53L
L4L
tp108
a(L802L
V\u6295\u5411\u6807\u51c6\u7eaf\u503a
p109
V\u6f4d\u574a\u519c\u5546\u5f20\u78ca(86412933)  14:29:35\u000a \u51fa\u74e2\u866b1M-3M\u975e\u4fdd\u7406\u8d22\uff0c\u53ccT+0\uff0cPR2\u7ea7\uff0c\u6295\u5411\u6807\u51c6\u7eaf\u503a\uff0c\u4e0d\u51fa\u51fd\u53ef\u6e05\u5355, \u4ef7\u683c\u52b2\u7206\uff0c\u6b22\u8fce\u9a9a\u6270\u3002  \u6f4d\u574a\u519c\u5546\u884c  \u5f20\u78ca 0536-8660289
p110
V\u4ea7\u54c1
p111
L64L
L70L
L6L
tp112
a(L803L
V1M
p113
V\u6f4d\u574a\u519c\u5546\u5f20\u78ca(86412933)  14:29:35\u000a \u51fa\u74e2\u866b1M-3M\u975e\u4fdd\u7406\u8d22\uff0c\u53ccT+0\uff0cPR2\u7ea7\uff0c\u6295\u5411\u6807\u51c6\u7eaf\u503a\uff0c\u4e0d\u51fa\u51fd\u53ef\u6e05\u5355, \u4ef7\u683c\u52b2\u7206\uff0c\u6b22\u8fce\u9a9a\u6270\u3002  \u6f4d\u574a\u519c\u5546\u884c  \u5f20\u78ca 0536-8660289
p114
V\u671f\u9650
p115
L44L
L46L
L2L
tp116
a(L804L
V3M
p117
V\u6f4d\u574a\u519c\u5546\u5f20\u78ca(86412933)  14:29:35\u000a \u51fa\u74e2\u866b1M-3M\u975e\u4fdd\u7406\u8d22\uff0c\u53ccT+0\uff0cPR2\u7ea7\uff0c\u6295\u5411\u6807\u51c6\u7eaf\u503a\uff0c\u4e0d\u51fa\u51fd\u53ef\u6e05\u5355, \u4ef7\u683c\u52b2\u7206\uff0c\u6b22\u8fce\u9a9a\u6270\u3002  \u6f4d\u574a\u519c\u5546\u884c  \u5f20\u78ca 0536-8660289
p118
V\u671f\u9650
p119
L47L
L49L
L3L
tp120
a(L805L
VR2\u7ea7
p121
V\u6f4d\u574a\u519c\u5546\u5f20\u78ca(86412933)  14:29:35\u000a \u51fa\u74e2\u866b1M-3M\u975e\u4fdd\u7406\u8d22\uff0c\u53ccT+0\uff0cPR2\u7ea7\uff0c\u6295\u5411\u6807\u51c6\u7eaf\u503a\uff0c\u4e0d\u51fa\u51fd\u53ef\u6e05\u5355, \u4ef7\u683c\u52b2\u7206\uff0c\u6b22\u8fce\u9a9a\u6270\u3002  \u6f4d\u574a\u519c\u5546\u884c  \u5f20\u78ca 0536-8660289
p122
V\u5229\u7387
p123
L60L
L63L
L5L
tp124
a(L806L
V\u53d1
p125
V\u3010\u603b\u88c1\u3011\u7ca4\u95f5\u8d44\u7ba1--\u666f\u5360(176148371)  14:32:19\u000a \u6211\u90e8\u53d1\u884c\u5e02\u7ea7\u653f\u5e9c\u5e73\u53f0\u4e3b\u52a8\u7ba1\u7406\u578b\u96c6\u5408\u4fe1\u6258~~\u627e\u91d1\u4e3b\u54e6\uff01\uff0c\u671f\u96502\u5e74\uff0cAA\u8bc4\u7ea7\u4e3b\u4f53\uff0cAA\u8bc4\u7ea7\u62c5\u4fdd\uff0c\u653f\u5e9c\u51fa\u51fd\uff0c\u8db3\u989d\u5e94\u6536\u8d26\u6b3e\u8d28\u62bc\u7b49\u7b49\u589e\u4fe1\u63aa\u65bd\uff0c\u6b22\u8fce\u4e0e\u6211\u90e8\u63a5\u6d3d\uff0c\u6211\u90e8\u5df2\u5907\u597d"\u4e30\u539a\u8336\u6c34\u201c@\u6240\u6709\u4eba
p126
V\u65b9\u5411
p127
L50L
L51L
L3L
tp128
a(L807L
V\u96c6\u5408\u4fe1\u6258
p129
V\u3010\u603b\u88c1\u3011\u7ca4\u95f5\u8d44\u7ba1--\u666f\u5360(176148371)  14:32:19\u000a \u6211\u90e8\u53d1\u884c\u5e02\u7ea7\u653f\u5e9c\u5e73\u53f0\u4e3b\u52a8\u7ba1\u7406\u578b\u96c6\u5408\u4fe1\u6258~~\u627e\u91d1\u4e3b\u54e6\uff01\uff0c\u671f\u96502\u5e74\uff0cAA\u8bc4\u7ea7\u4e3b\u4f53\uff0cAA\u8bc4\u7ea7\u62c5\u4fdd\uff0c\u653f\u5e9c\u51fa\u51fd\uff0c\u8db3\u989d\u5e94\u6536\u8d26\u6b3e\u8d28\u62bc\u7b49\u7b49\u589e\u4fe1\u63aa\u65bd\uff0c\u6b22\u8fce\u4e0e\u6211\u90e8\u63a5\u6d3d\uff0c\u6211\u90e8\u5df2\u5907\u597d"\u4e30\u539a\u8336\u6c34\u201c@\u6240\u6709\u4eba
p130
V\u4ea7\u54c1
p131
L63L
L67L
L4L
tp132
a(L808L
V\u671f\u96502\u5e74
p133
V\u3010\u603b\u88c1\u3011\u7ca4\u95f5\u8d44\u7ba1--\u666f\u5360(176148371)  14:32:19\u000a \u6211\u90e8\u53d1\u884c\u5e02\u7ea7\u653f\u5e9c\u5e73\u53f0\u4e3b\u52a8\u7ba1\u7406\u578b\u96c6\u5408\u4fe1\u6258~~\u627e\u91d1\u4e3b\u54e6\uff01\uff0c\u671f\u96502\u5e74\uff0cAA\u8bc4\u7ea7\u4e3b\u4f53\uff0cAA\u8bc4\u7ea7\u62c5\u4fdd\uff0c\u653f\u5e9c\u51fa\u51fd\uff0c\u8db3\u989d\u5e94\u6536\u8d26\u6b3e\u8d28\u62bc\u7b49\u7b49\u589e\u4fe1\u63aa\u65bd\uff0c\u6b22\u8fce\u4e0e\u6211\u90e8\u63a5\u6d3d\uff0c\u6211\u90e8\u5df2\u5907\u597d"\u4e30\u539a\u8336\u6c34\u201c@\u6240\u6709\u4eba
p134
V\u671f\u9650
p135
L75L
L79L
L5L
tp136
a(L809L
V32
p137
V\u3010\u603b\u88c1\u3011\u7ca4\u95f5\u8d44\u7ba1--\u666f\u5360(176148371)  14:32:19\u000a \u6211\u90e8\u53d1\u884c\u5e02\u7ea7\u653f\u5e9c\u5e73\u53f0\u4e3b\u52a8\u7ba1\u7406\u578b\u96c6\u5408\u4fe1\u6258~~\u627e\u91d1\u4e3b\u54e6\uff01\uff0c\u671f\u96502\u5e74\uff0cAA\u8bc4\u7ea7\u4e3b\u4f53\uff0cAA\u8bc4\u7ea7\u62c5\u4fdd\uff0c\u653f\u5e9c\u51fa\u51fd\uff0c\u8db3\u989d\u5e94\u6536\u8d26\u6b3e\u8d28\u62bc\u7b49\u7b49\u589e\u4fe1\u63aa\u65bd\uff0c\u6b22\u8fce\u4e0e\u6211\u90e8\u63a5\u6d3d\uff0c\u6211\u90e8\u5df2\u5907\u597d"\u4e30\u539a\u8336\u6c34\u201c@\u6240\u6709\u4eba
p138
V\u91d1\u989d
p139
L41L
L43L
L2L
tp140
a(L810L
V4
p141
V\u3010\u603b\u88c1\u3011\u7ca4\u95f5\u8d44\u7ba1--\u666f\u5360(176148371)  14:32:19\u000a \u6211\u90e8\u53d1\u884c\u5e02\u7ea7\u653f\u5e9c\u5e73\u53f0\u4e3b\u52a8\u7ba1\u7406\u578b\u96c6\u5408\u4fe1\u6258~~\u627e\u91d1\u4e3b\u54e6\uff01\uff0c\u671f\u96502\u5e74\uff0cAA\u8bc4\u7ea7\u4e3b\u4f53\uff0cAA\u8bc4\u7ea7\u62c5\u4fdd\uff0c\u653f\u5e9c\u51fa\u51fd\uff0c\u8db3\u989d\u5e94\u6536\u8d26\u6b3e\u8d28\u62bc\u7b49\u7b49\u589e\u4fe1\u63aa\u65bd\uff0c\u6b22\u8fce\u4e0e\u6211\u90e8\u63a5\u6d3d\uff0c\u6211\u90e8\u5df2\u5907\u597d"\u4e30\u539a\u8336\u6c34\u201c@\u6240\u6709\u4eba
p142
V\u5229\u7387
p143
L39L
L40L
L1L
tp144
a(L1072L
V80
p145
V\u3010\u603b\u76d1\u3011\u836f\u90fd\u519c\u5546\u884c \u738b\u96e8\u5357(373348051)  14:41:53\u000a \u501f\u9694\u591c\u8d44\u91d14\u4ebf\u5143\uff0c\u62bc\u4e0a\u6e05\u5b58\u5355\uff0c\u4e0a\u5348\u65e9\u8fd8\u6b3e
p146
V\u671f\u9650
p147
L32L
L34L
L3L
tp148
a(L1071L
V\u96e8\u5357(3
p149
V\u3010\u603b\u76d1\u3011\u836f\u90fd\u519c\u5546\u884c \u738b\u96e8\u5357(373348051)  14:41:53\u000a \u501f\u9694\u591c\u8d44\u91d14\u4ebf\u5143\uff0c\u62bc\u4e0a\u6e05\u5b58\u5355\uff0c\u4e0a\u5348\u65e9\u8fd8\u6b3e
p150
V\u4ea7\u54c1
p151
L24L
L28L
L2L
tp152
a(L1070L
V\u603b\u76d1\u3011\u836f\u90fd\u519c\u5546
p153
V\u3010\u603b\u76d1\u3011\u836f\u90fd\u519c\u5546\u884c \u738b\u96e8\u5357(373348051)  14:41:53\u000a \u501f\u9694\u591c\u8d44\u91d14\u4ebf\u5143\uff0c\u62bc\u4e0a\u6e05\u5b58\u5355\uff0c\u4e0a\u5348\u65e9\u8fd8\u6b3e
p154
V\u65b9\u5411
p155
L14L
L21L
L1L
tp156
a(L823L
V\u501f
p157
V\u3010\u603b\u76d1\u3011\u836f\u90fd\u519c\u5546\u884c \u738b\u96e8\u5357(373348051)  14:30:12\u000a \u501f\u9694\u591c\u8d44\u91d14\u4ebf\u5143\uff0c\u62bc\u4e0a\u6e05\u5b58\u5355\uff0c\u4e0a\u5348\u65e9\u8fd8\u6b3e
p158
V\u65b9\u5411
p159
L49L
L50L
L1L
tp160
a(L824L
V\u62bc\u4e0a\u6e05\u5b58\u5355
p161
V\u3010\u603b\u76d1\u3011\u836f\u90fd\u519c\u5546\u884c \u738b\u96e8\u5357(373348051)  14:30:12\u000a \u501f\u9694\u591c\u8d44\u91d14\u4ebf\u5143\uff0c\u62bc\u4e0a\u6e05\u5b58\u5355\uff0c\u4e0a\u5348\u65e9\u8fd8\u6b3e
p162
V\u4ea7\u54c1
p163
L58L
L63L
L4L
tp164
a(L825L
V\u9694\u591c
p165
V\u3010\u603b\u76d1\u3011\u836f\u90fd\u519c\u5546\u884c \u738b\u96e8\u5357(373348051)  14:30:12\u000a \u501f\u9694\u591c\u8d44\u91d14\u4ebf\u5143\uff0c\u62bc\u4e0a\u6e05\u5b58\u5355\uff0c\u4e0a\u5348\u65e9\u8fd8\u6b3e
p166
V\u671f\u9650
p167
L50L
L52L
L2L
tp168
a(L826L
V4\u4ebf
p169
V\u3010\u603b\u76d1\u3011\u836f\u90fd\u519c\u5546\u884c \u738b\u96e8\u5357(373348051)  14:30:12\u000a \u501f\u9694\u591c\u8d44\u91d14\u4ebf\u5143\uff0c\u62bc\u4e0a\u6e05\u5b58\u5355\uff0c\u4e0a\u5348\u65e9\u8fd8\u6b3e
p170
V\u91d1\u989d
p171
L54L
L56L
L3L
tp172
a(L831L
V\u51fa
p173
V\u9648\u7acb\u5e7f\uff08\u5510\u5c71\u94f6\u884c\uff09(94696767)  14:31:53\u000a \u5510\u5c71\u94f6\u884c\uff081900\u4ebf+\u57ce\u5546\u884c\uff09\u8fd1\u671f\u4e1a\u52a1\uff1a\u000a1.\u3010\u6536\u3011\u6536\u8d44\u91d1\uff0c\u6536\u8d44\u91d1\uff0c\u6536\u8d44\u91d1\uff0c\u4efb\u610f\u671f\u9650\uff0c\u4ef7\u683c\u7f8e\u4e3d\u3002\u6b22\u8fce\u5404\u4f4d\u9886\u5bfc\u540c\u4e8b\u5c0f\u7a97\u3002\u000a2.\u3010\u51fa\u3011\u5404\u671f\u9650\u9ad8\u9ad8\u9ad8\u4ef7\u7406\u8d22\uff084.6%-4.8%\uff09\u000a\u8054\u7cfb\u4eba\uff1a\u9648\u7acb\u5e7f\uff0c\u7535\u8bdd\uff1a15176574515\uff08\u5fae\u4fe1\u540c\u53f7\uff09\u000a            \u67f3\u6e05\uff1a15130574269
p174
V\u65b9\u5411
p175
L107L
L108L
L1L
tp176
a(L832L
V\u7406\u8d22
p177
V\u9648\u7acb\u5e7f\uff08\u5510\u5c71\u94f6\u884c\uff09(94696767)  14:31:53\u000a \u5510\u5c71\u94f6\u884c\uff081900\u4ebf+\u57ce\u5546\u884c\uff09\u8fd1\u671f\u4e1a\u52a1\uff1a\u000a1.\u3010\u6536\u3011\u6536\u8d44\u91d1\uff0c\u6536\u8d44\u91d1\uff0c\u6536\u8d44\u91d1\uff0c\u4efb\u610f\u671f\u9650\uff0c\u4ef7\u683c\u7f8e\u4e3d\u3002\u6b22\u8fce\u5404\u4f4d\u9886\u5bfc\u540c\u4e8b\u5c0f\u7a97\u3002\u000a2.\u3010\u51fa\u3011\u5404\u671f\u9650\u9ad8\u9ad8\u9ad8\u4ef7\u7406\u8d22\uff084.6%-4.8%\uff09\u000a\u8054\u7cfb\u4eba\uff1a\u9648\u7acb\u5e7f\uff0c\u7535\u8bdd\uff1a15176574515\uff08\u5fae\u4fe1\u540c\u53f7\uff09\u000a            \u67f3\u6e05\uff1a15130574269
p178
V\u4ea7\u54c1
p179
L116L
L118L
L2L
tp180
a(L833L
V4.6%
p181
V\u9648\u7acb\u5e7f\uff08\u5510\u5c71\u94f6\u884c\uff09(94696767)  14:31:53\u000a \u5510\u5c71\u94f6\u884c\uff081900\u4ebf+\u57ce\u5546\u884c\uff09\u8fd1\u671f\u4e1a\u52a1\uff1a\u000a1.\u3010\u6536\u3011\u6536\u8d44\u91d1\uff0c\u6536\u8d44\u91d1\uff0c\u6536\u8d44\u91d1\uff0c\u4efb\u610f\u671f\u9650\uff0c\u4ef7\u683c\u7f8e\u4e3d\u3002\u6b22\u8fce\u5404\u4f4d\u9886\u5bfc\u540c\u4e8b\u5c0f\u7a97\u3002\u000a2.\u3010\u51fa\u3011\u5404\u671f\u9650\u9ad8\u9ad8\u9ad8\u4ef7\u7406\u8d22\uff084.6%-4.8%\uff09\u000a\u8054\u7cfb\u4eba\uff1a\u9648\u7acb\u5e7f\uff0c\u7535\u8bdd\uff1a15176574515\uff08\u5fae\u4fe1\u540c\u53f7\uff09\u000a            \u67f3\u6e05\uff1a15130574269
p182
V\u5229\u7387
p183
L119L
L123L
L3L
tp184
a(L834L
V4.8%
p185
V\u9648\u7acb\u5e7f\uff08\u5510\u5c71\u94f6\u884c\uff09(94696767)  14:31:53\u000a \u5510\u5c71\u94f6\u884c\uff081900\u4ebf+\u57ce\u5546\u884c\uff09\u8fd1\u671f\u4e1a\u52a1\uff1a\u000a1.\u3010\u6536\u3011\u6536\u8d44\u91d1\uff0c\u6536\u8d44\u91d1\uff0c\u6536\u8d44\u91d1\uff0c\u4efb\u610f\u671f\u9650\uff0c\u4ef7\u683c\u7f8e\u4e3d\u3002\u6b22\u8fce\u5404\u4f4d\u9886\u5bfc\u540c\u4e8b\u5c0f\u7a97\u3002\u000a2.\u3010\u51fa\u3011\u5404\u671f\u9650\u9ad8\u9ad8\u9ad8\u4ef7\u7406\u8d22\uff084.6%-4.8%\uff09\u000a\u8054\u7cfb\u4eba\uff1a\u9648\u7acb\u5e7f\uff0c\u7535\u8bdd\uff1a15176574515\uff08\u5fae\u4fe1\u540c\u53f7\uff09\u000a            \u67f3\u6e05\uff1a15130574269
p186
V\u5229\u7387
p187
L124L
L128L
L4L
tp188
a(L836L
V\u6536
p189
V\u9648\u7acb\u5e7f\uff08\u5510\u5c71\u94f6\u884c\uff09(94696767)  14:31:53\u000a \u5510\u5c71\u94f6\u884c\uff081900\u4ebf+\u57ce\u5546\u884c\uff09\u8fd1\u671f\u4e1a\u52a1\uff1a\u000a1.\u3010\u6536\u3011\u6536\u8d44\u91d1\uff0c\u6536\u8d44\u91d1\uff0c\u6536\u8d44\u91d1\uff0c\u4efb\u610f\u671f\u9650\uff0c\u4ef7\u683c\u7f8e\u4e3d\u3002\u6b22\u8fce\u5404\u4f4d\u9886\u5bfc\u540c\u4e8b\u5c0f\u7a97\u3002\u000a2.\u3010\u51fa\u3011\u5404\u671f\u9650\u9ad8\u9ad8\u9ad8\u4ef7\u7406\u8d22\uff084.6%-4.8%\uff09\u000a\u8054\u7cfb\u4eba\uff1a\u9648\u7acb\u5e7f\uff0c\u7535\u8bdd\uff1a15176574515\uff08\u5fae\u4fe1\u540c\u53f7\uff09\u000a            \u67f3\u6e05\uff1a15130574269
p190
V\u65b9\u5411
p191
L68L
L69L
L1L
tp192
a(L837L
V\u8d44\u91d1
p193
V\u9648\u7acb\u5e7f\uff08\u5510\u5c71\u94f6\u884c\uff09(94696767)  14:31:53\u000a \u5510\u5c71\u94f6\u884c\uff081900\u4ebf+\u57ce\u5546\u884c\uff09\u8fd1\u671f\u4e1a\u52a1\uff1a\u000a1.\u3010\u6536\u3011\u6536\u8d44\u91d1\uff0c\u6536\u8d44\u91d1\uff0c\u6536\u8d44\u91d1\uff0c\u4efb\u610f\u671f\u9650\uff0c\u4ef7\u683c\u7f8e\u4e3d\u3002\u6b22\u8fce\u5404\u4f4d\u9886\u5bfc\u540c\u4e8b\u5c0f\u7a97\u3002\u000a2.\u3010\u51fa\u3011\u5404\u671f\u9650\u9ad8\u9ad8\u9ad8\u4ef7\u7406\u8d22\uff084.6%-4.8%\uff09\u000a\u8054\u7cfb\u4eba\uff1a\u9648\u7acb\u5e7f\uff0c\u7535\u8bdd\uff1a15176574515\uff08\u5fae\u4fe1\u540c\u53f7\uff09\u000a            \u67f3\u6e05\uff1a15130574269
p194
V\u4ea7\u54c1
p195
L75L
L77L
L2L
tp196
a(L838L
V4.6
p197
V\u9648\u7acb\u5e7f\uff08\u5510\u5c71\u94f6\u884c\uff09(94696767)  14:31:53\u000a \u5510\u5c71\u94f6\u884c\uff081900\u4ebf+\u57ce\u5546\u884c\uff09\u8fd1\u671f\u4e1a\u52a1\uff1a\u000a1.\u3010\u6536\u3011\u6536\u8d44\u91d1\uff0c\u6536\u8d44\u91d1\uff0c\u6536\u8d44\u91d1\uff0c\u4efb\u610f\u671f\u9650\uff0c\u4ef7\u683c\u7f8e\u4e3d\u3002\u6b22\u8fce\u5404\u4f4d\u9886\u5bfc\u540c\u4e8b\u5c0f\u7a97\u3002\u000a2.\u3010\u51fa\u3011\u5404\u671f\u9650\u9ad8\u9ad8\u9ad8\u4ef7\u7406\u8d22\uff084.6%-4.8%\uff09\u000a\u8054\u7cfb\u4eba\uff1a\u9648\u7acb\u5e7f\uff0c\u7535\u8bdd\uff1a15176574515\uff08\u5fae\u4fe1\u540c\u53f7\uff09\u000a            \u67f3\u6e05\uff1a15130574269
p198
V\u5229\u7387
p199
L119L
L122L
L3L
tp200
a(L839L
V4.8
p201
V\u9648\u7acb\u5e7f\uff08\u5510\u5c71\u94f6\u884c\uff09(94696767)  14:31:53\u000a \u5510\u5c71\u94f6\u884c\uff081900\u4ebf+\u57ce\u5546\u884c\uff09\u8fd1\u671f\u4e1a\u52a1\uff1a\u000a1.\u3010\u6536\u3011\u6536\u8d44\u91d1\uff0c\u6536\u8d44\u91d1\uff0c\u6536\u8d44\u91d1\uff0c\u4efb\u610f\u671f\u9650\uff0c\u4ef7\u683c\u7f8e\u4e3d\u3002\u6b22\u8fce\u5404\u4f4d\u9886\u5bfc\u540c\u4e8b\u5c0f\u7a97\u3002\u000a2.\u3010\u51fa\u3011\u5404\u671f\u9650\u9ad8\u9ad8\u9ad8\u4ef7\u7406\u8d22\uff084.6%-4.8%\uff09\u000a\u8054\u7cfb\u4eba\uff1a\u9648\u7acb\u5e7f\uff0c\u7535\u8bdd\uff1a15176574515\uff08\u5fae\u4fe1\u540c\u53f7\uff09\u000a            \u67f3\u6e05\uff1a15130574269
p202
V\u5229\u7387
p203
L124L
L127L
L4L
tp204
a(L1129L
V1465564)  14:44:51\u000a \u73ab\u7470\u8bda\u501f 1-
p205
V\u5c71\u897f\u9633\u66f2\u519c\u5546\u738b\u8212\u5fae.(3301465564)  14:44:51\u000a \u73ab\u7470\u8bda\u501f 1-7\u5929  2\u4ebf\uff0c\u6c42\u5c0f\u7a97\u73ab\u7470\u73ab\u7470
p206
V\u91d1\u989d
p207
L27L
L54L
L1L
tp208
a(L1122L
V\u4e1a
p209
V\u3010\u7fa4\u4e3b\u3011\u90ae\u50a8\u94f6\u884cMr.\u5434(1444568)  14:40:28\u000a \u4e3b\u63a8\u4e1a\u52a1\uff1a \u000a 1\u3001\u80a1\u7968\u8d28\u62bc\u5f0f\u56de\u8d2d\uff08\u542b\u573a\u5916\uff09\u3001\u5b9a\u589e\u000a 2\u3001\u6536\u76ca\u51ed\u8bc1 \u000a 3\u3001\u4e24\u878d \u000a 4\u3001\u51fa\u7406\u8d22 \uff0c\u51fa\u975e\u94f6\u540c\u5b58   \uff0c\u51fa\u540c\u5b58\u8d44\u91d1   \u000a\u672c\u4eba\u76ee\u524d\u5728\u603b\u884c\u8d44\u7ba1\u90e8\u505a\u4e0a\u8bc9\u4e1a\u52a1 \uff0c\u6b22\u8fce\u5404\u4f4d\u670b\u53cb\u63a5\u6d3d    \u90ae\u50a8\u94f6\u884c \u5434\u957f\u745e  17091558000
p210
V\u6e05\u7b97\u901f\u5ea6
p211
L127L
L128L
L13L
tp212
a(L1121L
V\u5404
p213
V\u3010\u7fa4\u4e3b\u3011\u90ae\u50a8\u94f6\u884cMr.\u5434(1444568)  14:40:28\u000a \u4e3b\u63a8\u4e1a\u52a1\uff1a \u000a 1\u3001\u80a1\u7968\u8d28\u62bc\u5f0f\u56de\u8d2d\uff08\u542b\u573a\u5916\uff09\u3001\u5b9a\u589e\u000a 2\u3001\u6536\u76ca\u51ed\u8bc1 \u000a 3\u3001\u4e24\u878d \u000a 4\u3001\u51fa\u7406\u8d22 \uff0c\u51fa\u975e\u94f6\u540c\u5b58   \uff0c\u51fa\u540c\u5b58\u8d44\u91d1   \u000a\u672c\u4eba\u76ee\u524d\u5728\u603b\u884c\u8d44\u7ba1\u90e8\u505a\u4e0a\u8bc9\u4e1a\u52a1 \uff0c\u6b22\u8fce\u5404\u4f4d\u670b\u53cb\u63a5\u6d3d    \u90ae\u50a8\u94f6\u884c \u5434\u957f\u745e  17091558000
p214
V\u8d2d\u4e70\u65b9\u5f0f
p215
L133L
L134L
L15L
tp216
a(L1120L
V\uff0c\u6b22
p217
V\u3010\u7fa4\u4e3b\u3011\u90ae\u50a8\u94f6\u884cMr.\u5434(1444568)  14:40:28\u000a \u4e3b\u63a8\u4e1a\u52a1\uff1a \u000a 1\u3001\u80a1\u7968\u8d28\u62bc\u5f0f\u56de\u8d2d\uff08\u542b\u573a\u5916\uff09\u3001\u5b9a\u589e\u000a 2\u3001\u6536\u76ca\u51ed\u8bc1 \u000a 3\u3001\u4e24\u878d \u000a 4\u3001\u51fa\u7406\u8d22 \uff0c\u51fa\u975e\u94f6\u540c\u5b58   \uff0c\u51fa\u540c\u5b58\u8d44\u91d1   \u000a\u672c\u4eba\u76ee\u524d\u5728\u603b\u884c\u8d44\u7ba1\u90e8\u505a\u4e0a\u8bc9\u4e1a\u52a1 \uff0c\u6b22\u8fce\u5404\u4f4d\u670b\u53cb\u63a5\u6d3d    \u90ae\u50a8\u94f6\u884c \u5434\u957f\u745e  17091558000
p218
V\u8d2d\u4e70\u65b9\u5f0f
p219
L130L
L132L
L14L
tp220
a(L853L
V\u501f
p221
V\u3010\u603b\u76d1\u3011\u836f\u90fd\u519c\u5546\u884c \u738b\u96e8\u5357(373348051)  14:29:32\u000a \u501f\u9694\u591c\u8d44\u91d14\u4ebf\u5143\uff0c\u62bc\u4e0a\u6e05\u5b58\u5355\uff0c\u4e0a\u5348\u65e9\u8fd8\u6b3e
p222
V\u671f\u9650
p223
L49L
L50L
L1L
tp224
a(L854L
V\u591c
p225
V\u3010\u603b\u76d1\u3011\u836f\u90fd\u519c\u5546\u884c \u738b\u96e8\u5357(373348051)  14:29:32\u000a \u501f\u9694\u591c\u8d44\u91d14\u4ebf\u5143\uff0c\u62bc\u4e0a\u6e05\u5b58\u5355\uff0c\u4e0a\u5348\u65e9\u8fd8\u6b3e
p226
V\u91d1\u989d
p227
L51L
L52L
L2L
tp228
a(L855L
V4\u4ebf
p229
V\u3010\u603b\u76d1\u3011\u836f\u90fd\u519c\u5546\u884c \u738b\u96e8\u5357(373348051)  14:29:32\u000a \u501f\u9694\u591c\u8d44\u91d14\u4ebf\u5143\uff0c\u62bc\u4e0a\u6e05\u5b58\u5355\uff0c\u4e0a\u5348\u65e9\u8fd8\u6b3e
p230
V\u5229\u7387
p231
L54L
L56L
L3L
tp232
a(L856L
V7\u000a \u501f
p233
V\u3010\u603b\u76d1\u3011\u4e34\u6cad\u519c\u5546\u9648\u8499\u8499(675162724)  14:30:17\u000a \u501f\u9694\u591c1\u4ebf\uff0c\u62bc\u5229\u7387\uff0c\u6c42\u5c0f\u7a97
p234
V\u4ea7\u54c1
p235
L44L
L48L
L1L
tp236
a(L857L
V\u9694\u591c1
p237
V\u3010\u603b\u76d1\u3011\u4e34\u6cad\u519c\u5546\u9648\u8499\u8499(675162724)  14:30:17\u000a \u501f\u9694\u591c1\u4ebf\uff0c\u62bc\u5229\u7387\uff0c\u6c42\u5c0f\u7a97
p238
V\u91d1\u989d
p239
L48L
L51L
L2L
tp240
a(L861L
V\u5b58\u5355
p241
V\u3010\u603b\u76d1\u3011\u836f\u90fd\u519c\u5546\u884c \u738b\u96e8\u5357(373348051)  14:29:32\u000a \u501f\u9694\u591c\u8d44\u91d14\u4ebf\u5143\uff0c\u62bc\u4e0a\u6e05\u5b58\u5355\uff0c\u4e0a\u5348\u65e9\u8fd8\u6b3e
p242
V\u4ea7\u54c1
p243
L61L
L63L
L3L
tp244
a(L860L
V\u501f
p245
V\u3010\u603b\u76d1\u3011\u836f\u90fd\u519c\u5546\u884c \u738b\u96e8\u5357(373348051)  14:29:32\u000a \u501f\u9694\u591c\u8d44\u91d14\u4ebf\u5143\uff0c\u62bc\u4e0a\u6e05\u5b58\u5355\uff0c\u4e0a\u5348\u65e9\u8fd8\u6b3e
p246
V\u65b9\u5411
p247
L49L
L50L
L1L
tp248
a(L862L
V4\u4ebf\u5143
p249
V\u3010\u603b\u76d1\u3011\u836f\u90fd\u519c\u5546\u884c \u738b\u96e8\u5357(373348051)  14:29:32\u000a \u501f\u9694\u591c\u8d44\u91d14\u4ebf\u5143\uff0c\u62bc\u4e0a\u6e05\u5b58\u5355\uff0c\u4e0a\u5348\u65e9\u8fd8\u6b3e
p250
V\u91d1\u989d
p251
L54L
L57L
L2L
tp252
a(L863L
V\u6536
p253
V\u3010\u7ecf\u7406\u3011\u9648\u7acb\u5e7f\uff08\u5510\u5c71\u94f6\u884c\uff09(94696767)  14:32:17\u000a \u5510\u5c71\u94f6\u884c\uff081900\u4ebf+\u57ce\u5546\u884c\uff09\u8fd1\u671f\u4e1a\u52a1\uff1a\u000a1.\u3010\u6536\u3011\u6536\u8d44\u91d1\uff0c\u6536\u8d44\u91d1\uff0c\u6536\u8d44\u91d1\uff0c\u4efb\u610f\u671f\u9650\uff0c\u4ef7\u683c\u7f8e\u4e3d\u3002\u6b22\u8fce\u5404\u4f4d\u9886\u5bfc\u540c\u4e8b\u5c0f\u7a97\u3002\u000a2.\u3010\u51fa\u3011\u5404\u671f\u9650\u9ad8\u9ad8\u9ad8\u4ef7\u7406\u8d22\uff084.6%-4.8%\uff09\u000a\u8054\u7cfb\u4eba\uff1a\u9648\u7acb\u5e7f\uff0c\u7535\u8bdd\uff1a15176574515\uff08\u5fae\u4fe1\u540c\u53f7\uff09\u000a            \u67f3\u6e05\uff1a15130574269
p254
V\u4ea7\u54c1
p255
L72L
L73L
L1L
tp256
a(L864L
V4.6
p257
V\u3010\u7ecf\u7406\u3011\u9648\u7acb\u5e7f\uff08\u5510\u5c71\u94f6\u884c\uff09(94696767)  14:32:17\u000a \u5510\u5c71\u94f6\u884c\uff081900\u4ebf+\u57ce\u5546\u884c\uff09\u8fd1\u671f\u4e1a\u52a1\uff1a\u000a1.\u3010\u6536\u3011\u6536\u8d44\u91d1\uff0c\u6536\u8d44\u91d1\uff0c\u6536\u8d44\u91d1\uff0c\u4efb\u610f\u671f\u9650\uff0c\u4ef7\u683c\u7f8e\u4e3d\u3002\u6b22\u8fce\u5404\u4f4d\u9886\u5bfc\u540c\u4e8b\u5c0f\u7a97\u3002\u000a2.\u3010\u51fa\u3011\u5404\u671f\u9650\u9ad8\u9ad8\u9ad8\u4ef7\u7406\u8d22\uff084.6%-4.8%\uff09\u000a\u8054\u7cfb\u4eba\uff1a\u9648\u7acb\u5e7f\uff0c\u7535\u8bdd\uff1a15176574515\uff08\u5fae\u4fe1\u540c\u53f7\uff09\u000a            \u67f3\u6e05\uff1a15130574269
p258
V\u5229\u7387
p259
L123L
L126L
L2L
tp260
a(L865L
V4.8
p261
V\u3010\u7ecf\u7406\u3011\u9648\u7acb\u5e7f\uff08\u5510\u5c71\u94f6\u884c\uff09(94696767)  14:32:17\u000a \u5510\u5c71\u94f6\u884c\uff081900\u4ebf+\u57ce\u5546\u884c\uff09\u8fd1\u671f\u4e1a\u52a1\uff1a\u000a1.\u3010\u6536\u3011\u6536\u8d44\u91d1\uff0c\u6536\u8d44\u91d1\uff0c\u6536\u8d44\u91d1\uff0c\u4efb\u610f\u671f\u9650\uff0c\u4ef7\u683c\u7f8e\u4e3d\u3002\u6b22\u8fce\u5404\u4f4d\u9886\u5bfc\u540c\u4e8b\u5c0f\u7a97\u3002\u000a2.\u3010\u51fa\u3011\u5404\u671f\u9650\u9ad8\u9ad8\u9ad8\u4ef7\u7406\u8d22\uff084.6%-4.8%\uff09\u000a\u8054\u7cfb\u4eba\uff1a\u9648\u7acb\u5e7f\uff0c\u7535\u8bdd\uff1a15176574515\uff08\u5fae\u4fe1\u540c\u53f7\uff09\u000a            \u67f3\u6e05\uff1a15130574269
p262
V\u5229\u7387
p263
L128L
L131L
L3L
tp264
a(L866L
V\u51fa
p265
V\u6f4d\u574a\u519c\u5546\u5f20\u78ca(86412933)  14:29:35\u000a \u51fa\u74e2\u866b1M-3M\u975e\u4fdd\u7406\u8d22\uff0c\u53ccT+0\uff0cPR2\u7ea7\uff0c\u6295\u5411\u6807\u51c6\u7eaf\u503a\uff0c\u4e0d\u51fa\u51fd\u53ef\u6e05\u5355, \u4ef7\u683c\u52b2\u7206\uff0c\u6b22\u8fce\u9a9a\u6270\u3002  \u6f4d\u574a\u519c\u5546\u884c  \u5f20\u78ca 0536-8660289
p266
V\u65b9\u5411
p267
L41L
L42L
L1L
tp268
a(L867L
V\u975e\u4fdd\u7406\u8d22
p269
V\u6f4d\u574a\u519c\u5546\u5f20\u78ca(86412933)  14:29:35\u000a \u51fa\u74e2\u866b1M-3M\u975e\u4fdd\u7406\u8d22\uff0c\u53ccT+0\uff0cPR2\u7ea7\uff0c\u6295\u5411\u6807\u51c6\u7eaf\u503a\uff0c\u4e0d\u51fa\u51fd\u53ef\u6e05\u5355, \u4ef7\u683c\u52b2\u7206\uff0c\u6b22\u8fce\u9a9a\u6270\u3002  \u6f4d\u574a\u519c\u5546\u884c  \u5f20\u78ca 0536-8660289
p270
V\u4ea7\u54c1
p271
L49L
L53L
L4L
tp272
a(L868L
V1M
p273
V\u6f4d\u574a\u519c\u5546\u5f20\u78ca(86412933)  14:29:35\u000a \u51fa\u74e2\u866b1M-3M\u975e\u4fdd\u7406\u8d22\uff0c\u53ccT+0\uff0cPR2\u7ea7\uff0c\u6295\u5411\u6807\u51c6\u7eaf\u503a\uff0c\u4e0d\u51fa\u51fd\u53ef\u6e05\u5355, \u4ef7\u683c\u52b2\u7206\uff0c\u6b22\u8fce\u9a9a\u6270\u3002  \u6f4d\u574a\u519c\u5546\u884c  \u5f20\u78ca 0536-8660289
p274
V\u671f\u9650
p275
L44L
L46L
L2L
tp276
a(L869L
V3M
p277
V\u6f4d\u574a\u519c\u5546\u5f20\u78ca(86412933)  14:29:35\u000a \u51fa\u74e2\u866b1M-3M\u975e\u4fdd\u7406\u8d22\uff0c\u53ccT+0\uff0cPR2\u7ea7\uff0c\u6295\u5411\u6807\u51c6\u7eaf\u503a\uff0c\u4e0d\u51fa\u51fd\u53ef\u6e05\u5355, \u4ef7\u683c\u52b2\u7206\uff0c\u6b22\u8fce\u9a9a\u6270\u3002  \u6f4d\u574a\u519c\u5546\u884c  \u5f20\u78ca 0536-8660289
p278
V\u671f\u9650
p279
L47L
L49L
L3L
tp280
a(L1095L
V\u6c42\u5c0f
p281
V\u5c71\u897f\u9633\u66f2\u519c\u5546\u738b\u8212\u5fae.(3301465564)  14:39:23\u000a \u73ab\u7470\u8bda\u501f 1-7\u5929  2\u4ebf\uff0c\u6c42\u5c0f\u7a97\u73ab\u7470\u73ab\u7470
p282
V\u5e01\u79cd
p283
L61L
L63L
L6L
tp284
a(L1094L
V\u501f 1-
p285
V\u5c71\u897f\u9633\u66f2\u519c\u5546\u738b\u8212\u5fae.(3301465564)  14:39:23\u000a \u73ab\u7470\u8bda\u501f 1-7\u5929  2\u4ebf\uff0c\u6c42\u5c0f\u7a97\u73ab\u7470\u73ab\u7470
p286
V\u5229\u7387
p287
L50L
L54L
L5L
tp288
a(L1093L
V:39:23\u000a
p289
V\u5c71\u897f\u9633\u66f2\u519c\u5546\u738b\u8212\u5fae.(3301465564)  14:39:23\u000a \u73ab\u7470\u8bda\u501f 1-7\u5929  2\u4ebf\uff0c\u6c42\u5c0f\u7a97\u73ab\u7470\u73ab\u7470
p290
V\u91d1\u989d
p291
L39L
L46L
L4L
tp292
a(L1092L
V55
p293
V\u5c71\u897f\u9633\u66f2\u519c\u5546\u738b\u8212\u5fae.(3301465564)  14:39:23\u000a \u73ab\u7470\u8bda\u501f 1-7\u5929  2\u4ebf\uff0c\u6c42\u5c0f\u7a97\u73ab\u7470\u73ab\u7470
p294
V\u671f\u9650
p295
L30L
L32L
L3L
tp296
a(L882L
V\u501f
p297
V\u5c71\u897f\u9633\u66f2\u519c\u5546\u738b\u8212\u5fae.(3301465564)  14:32:54\u000a \u73ab\u7470\u8bda\u501f 1-7\u5929  2\u4ebf\uff0c\u6c42\u5c0f\u7a97\u73ab\u7470\u73ab\u7470
p298
V\u65b9\u5411
p299
L50L
L51L
L1L
tp300
a(L883L
V1-7\u5929
p301
V\u5c71\u897f\u9633\u66f2\u519c\u5546\u738b\u8212\u5fae.(3301465564)  14:32:54\u000a \u73ab\u7470\u8bda\u501f 1-7\u5929  2\u4ebf\uff0c\u6c42\u5c0f\u7a97\u73ab\u7470\u73ab\u7470
p302
V\u671f\u9650
p303
L52L
L56L
L2L
tp304
a(L884L
V2\u4ebf
p305
V\u5c71\u897f\u9633\u66f2\u519c\u5546\u738b\u8212\u5fae.(3301465564)  14:32:54\u000a \u73ab\u7470\u8bda\u501f 1-7\u5929  2\u4ebf\uff0c\u6c42\u5c0f\u7a97\u73ab\u7470\u73ab\u7470
p306
V\u91d1\u989d
p307
L58L
L60L
L3L
tp308
a(L886L
V\u96c6\u5408\u4fe1\u6258~~
p309
V\u3010\u526f\u603b\u3011\u7ca4\u95f5\u8d44\u7ba1\u666f\u5360(176148371)  14:32:23\u000a \u6211\u90e8\u53d1\u884c\u5e02\u7ea7\u653f\u5e9c\u5e73\u53f0\u4e3b\u52a8\u7ba1\u7406\u578b\u96c6\u5408\u4fe1\u6258~~\u627e\u91d1\u4e3b\u54e6\uff01\uff0c\u671f\u96502\u5e74\uff0cAA\u8bc4\u7ea7\u4e3b\u4f53\uff0cAA\u8bc4\u7ea7\u62c5\u4fdd\uff0c\u653f\u5e9c\u51fa\u51fd\uff0c\u8db3\u989d\u5e94\u6536\u8d26\u6b3e\u8d28\u62bc\u7b49\u7b49\u589e\u4fe1\u63aa\u65bd\uff0c\u6b22\u8fce\u4e0e\u6211\u90e8\u63a5\u6d3d\uff0c\u6211\u90e8\u5df2\u5907\u597d"\u4e30\u539a\u8336\u6c34\u201c@\u6240\u6709\u4eba
p310
V\u4ea7\u54c1
p311
L61L
L67L
L1L
tp312
a(L887L
V\u6c5d\u5dde\u519c\u5546\u884c\u9ad8\u4e9a
p313
V\u6c5d\u5dde\u519c\u5546\u884c\u9ad8\u4e9a(408925069)  14:31:23\u000a \u8bda\u501f1~7\u5929\u8d44\u91d1\uff0c\u62bc\u5229\u7387~
p314
V\u4ea7\u54c1
p315
L13L
L20L
L1L
tp316
a(L888L
V1
p317
V\u6c5d\u5dde\u519c\u5546\u884c\u9ad8\u4e9a(408925069)  14:31:23\u000a \u8bda\u501f1~7\u5929\u8d44\u91d1\uff0c\u62bc\u5229\u7387~
p318
V\u671f\u9650
p319
L45L
L46L
L2L
tp320
a(L889L
V7
p321
V\u6c5d\u5dde\u519c\u5546\u884c\u9ad8\u4e9a(408925069)  14:31:23\u000a \u8bda\u501f1~7\u5929\u8d44\u91d1\uff0c\u62bc\u5229\u7387~
p322
V\u671f\u9650
p323
L47L
L48L
L3L
tp324
a(L891L
V3000\u4e07
p325
V\u7941\u95e8\u519c\u5546\u884c \u5218\u8f89(1686481099)  14:30:43\u000a \u501f\u9694\u591c3000\u4e07\uff0c\u62bc\u5229\u7387\uff0c\u6c42\u5c0f\u7a97\u3002\u73ab\u7470\u73ab\u7470\u73ab\u7470
p326
V\u91d1\u989d
p327
L48L
L53L
L1L
tp328
a(L892L
V\u5229\u7387
p329
V\u7941\u95e8\u519c\u5546\u884c \u5218\u8f89(1686481099)  14:30:43\u000a \u501f\u9694\u591c3000\u4e07\uff0c\u62bc\u5229\u7387\uff0c\u6c42\u5c0f\u7a97\u3002\u73ab\u7470\u73ab\u7470\u73ab\u7470
p330
V\u5229\u7387
p331
L55L
L57L
L2L
tp332
a(L895L
V\u9ad8\u4e9a
p333
V\u6c5d\u5dde\u519c\u5546\u884c\u9ad8\u4e9a(408925069)  14:31:23\u000a \u8bda\u501f1~7\u5929\u8d44\u91d1\uff0c\u62bc\u5229\u7387~
p334
V\u65b9\u5411
p335
L18L
L20L
L2L
tp336
a(L896L
V\u5dde\u519c\u5546
p337
V\u6c5d\u5dde\u519c\u5546\u884c\u9ad8\u4e9a(408925069)  14:31:23\u000a \u8bda\u501f1~7\u5929\u8d44\u91d1\uff0c\u62bc\u5229\u7387~
p338
V\u4ea7\u54c1
p339
L14L
L17L
L1L
tp340
a(L897L
V14
p341
V\u6c5d\u5dde\u519c\u5546\u884c\u9ad8\u4e9a(408925069)  14:31:23\u000a \u8bda\u501f1~7\u5929\u8d44\u91d1\uff0c\u62bc\u5229\u7387~
p342
V\u671f\u9650
p343
L33L
L35L
L3L
tp344
a(L898L
V1
p345
V\u6c5d\u5dde\u519c\u5546\u884c\u9ad8\u4e9a(408925069)  14:31:23\u000a \u8bda\u501f1~7\u5929\u8d44\u91d1\uff0c\u62bc\u5229\u7387~
p346
V\u91d1\u989d
p347
L45L
L46L
L4L
tp348
a(L899L
V7
p349
V\u6c5d\u5dde\u519c\u5546\u884c\u9ad8\u4e9a(408925069)  14:31:23\u000a \u8bda\u501f1~7\u5929\u8d44\u91d1\uff0c\u62bc\u5229\u7387~
p350
V\u5229\u7387
p351
L47L
L48L
L5L
tp352
a(L900L
V\u5229\u7387~
p353
V\u6c5d\u5dde\u519c\u5546\u884c\u9ad8\u4e9a(408925069)  14:31:23\u000a \u8bda\u501f1~7\u5929\u8d44\u91d1\uff0c\u62bc\u5229\u7387~
p354
V\u5e01\u79cd
p355
L53L
L79L
L6L
tp356
a(L901L
V\u6e56\u6ee8
p357
V\u6e56\u6ee8\u519c\u5546\u884c\u8d75\u78ca(1307956997)  14:31:37\u000a 3.24\u501f7\u59291.2\u4ebf\uff0c\u62bc\u5229\u7387
p358
V\u65b9\u5411
p359
L13L
L15L
L1L
tp360
a(L902L
V\u5546\u884c
p361
V\u6e56\u6ee8\u519c\u5546\u884c\u8d75\u78ca(1307956997)  14:31:37\u000a 3.24\u501f7\u59291.2\u4ebf\uff0c\u62bc\u5229\u7387
p362
V\u4ea7\u54c1
p363
L16L
L18L
L2L
tp364
a(L907L
V\u000a \u6211
p365
V\u3010\u603b\u88c1\u3011\u7ca4\u95f5\u8d44\u7ba1--\u666f\u5360(176148371)  14:32:19\u000a \u6211\u90e8\u53d1\u884c\u5e02\u7ea7\u653f\u5e9c\u5e73\u53f0\u4e3b\u52a8\u7ba1\u7406\u578b\u96c6\u5408\u4fe1\u6258~~\u627e\u91d1\u4e3b\u54e6\uff01\uff0c\u671f\u96502\u5e74\uff0cAA\u8bc4\u7ea7\u4e3b\u4f53\uff0cAA\u8bc4\u7ea7\u62c5\u4fdd\uff0c\u653f\u5e9c\u51fa\u51fd\uff0c\u8db3\u989d\u5e94\u6536\u8d26\u6b3e\u8d28\u62bc\u7b49\u7b49\u589e\u4fe1\u63aa\u65bd\uff0c\u6b22\u8fce\u4e0e\u6211\u90e8\u63a5\u6d3d\uff0c\u6211\u90e8\u5df2\u5907\u597d"\u4e30\u539a\u8336\u6c34\u201c@\u6240\u6709\u4eba
p366
V\u91d1\u989d
p367
L46L
L49L
L1L
tp368
a(L908L
V\u501f
p369
V\u3010\u7ecf\u7406\u3011\u5b9a\u9676\u519c\u5546\u94f6\u884c \u4e07\u4f1f\u534e(78652725)  14:32:22\u000a 2.74\u8bda\u501f\u9694\u591c\uff0c\u62bc\u5229\u7387\uff0c\u6b22\u8fce\u5c0f\u7a97
p370
V\u65b9\u5411
p371
L54L
L55L
L1L
tp372
a(L909L
V\u62bc\u5229\u7387
p373
V\u3010\u7ecf\u7406\u3011\u5b9a\u9676\u519c\u5546\u94f6\u884c \u4e07\u4f1f\u534e(78652725)  14:32:22\u000a 2.74\u8bda\u501f\u9694\u591c\uff0c\u62bc\u5229\u7387\uff0c\u6b22\u8fce\u5c0f\u7a97
p374
V\u4ea7\u54c1
p375
L58L
L61L
L3L
tp376
a(L910L
V\u9694\u591c
p377
V\u3010\u7ecf\u7406\u3011\u5b9a\u9676\u519c\u5546\u94f6\u884c \u4e07\u4f1f\u534e(78652725)  14:32:22\u000a 2.74\u8bda\u501f\u9694\u591c\uff0c\u62bc\u5229\u7387\uff0c\u6b22\u8fce\u5c0f\u7a97
p378
V\u671f\u9650
p379
L55L
L57L
L2L
tp380
a(L1108L
V\u5b9a\u589e\u000a
p381
V\u3010\u7fa4\u4e3b\u3011\u90ae\u50a8\u94f6\u884cMr.\u5434(1444568)  14:40:28\u000a \u4e3b\u63a8\u4e1a\u52a1\uff1a \u000a 1\u3001\u80a1\u7968\u8d28\u62bc\u5f0f\u56de\u8d2d\uff08\u542b\u573a\u5916\uff09\u3001\u5b9a\u589e\u000a 2\u3001\u6536\u76ca\u51ed\u8bc1 \u000a 3\u3001\u4e24\u878d \u000a 4\u3001\u51fa\u7406\u8d22 \uff0c\u51fa\u975e\u94f6\u540c\u5b58   \uff0c\u51fa\u540c\u5b58\u8d44\u91d1   \u000a\u672c\u4eba\u76ee\u524d\u5728\u603b\u884c\u8d44\u7ba1\u90e8\u505a\u4e0a\u8bc9\u4e1a\u52a1 \uff0c\u6b22\u8fce\u5404\u4f4d\u670b\u53cb\u63a5\u6d3d    \u90ae\u50a8\u94f6\u884c \u5434\u957f\u745e  17091558000
p382
V\u4ea7\u54c1
p383
L69L
L72L
L3L
tp384
a(L1104L
V\u51fa
p385
V\u3010\u7fa4\u4e3b\u3011\u90ae\u50a8\u94f6\u884cMr.\u5434(1444568)  14:40:28\u000a \u4e3b\u63a8\u4e1a\u52a1\uff1a \u000a 1\u3001\u80a1\u7968\u8d28\u62bc\u5f0f\u56de\u8d2d\uff08\u542b\u573a\u5916\uff09\u3001\u5b9a\u589e\u000a 2\u3001\u6536\u76ca\u51ed\u8bc1 \u000a 3\u3001\u4e24\u878d \u000a 4\u3001\u51fa\u7406\u8d22 \uff0c\u51fa\u975e\u94f6\u540c\u5b58   \uff0c\u51fa\u540c\u5b58\u8d44\u91d1   \u000a\u672c\u4eba\u76ee\u524d\u5728\u603b\u884c\u8d44\u7ba1\u90e8\u505a\u4e0a\u8bc9\u4e1a\u52a1 \uff0c\u6b22\u8fce\u5404\u4f4d\u670b\u53cb\u63a5\u6d3d    \u90ae\u50a8\u94f6\u884c \u5434\u957f\u745e  17091558000
p386
V\u65b9\u5411
p387
L91L
L92L
L6L
tp388
a(L1103L
V\u50a8\u94f6
p389
V\u3010\u7fa4\u4e3b\u3011\u90ae\u50a8\u94f6\u884cMr.\u5434(1444568)  14:40:28\u000a \u4e3b\u63a8\u4e1a\u52a1\uff1a \u000a 1\u3001\u80a1\u7968\u8d28\u62bc\u5f0f\u56de\u8d2d\uff08\u542b\u573a\u5916\uff09\u3001\u5b9a\u589e\u000a 2\u3001\u6536\u76ca\u51ed\u8bc1 \u000a 3\u3001\u4e24\u878d \u000a 4\u3001\u51fa\u7406\u8d22 \uff0c\u51fa\u975e\u94f6\u540c\u5b58   \uff0c\u51fa\u540c\u5b58\u8d44\u91d1   \u000a\u672c\u4eba\u76ee\u524d\u5728\u603b\u884c\u8d44\u7ba1\u90e8\u505a\u4e0a\u8bc9\u4e1a\u52a1 \uff0c\u6b22\u8fce\u5404\u4f4d\u670b\u53cb\u63a5\u6d3d    \u90ae\u50a8\u94f6\u884c \u5434\u957f\u745e  17091558000
p390
V\u65b9\u5411
p391
L18L
L20L
L1L
tp392
a(L1102L
V1:53\u000a \u501f\u9694\u591c\u8d44\u91d14\u4ebf\u5143\uff0c\u62bc\u4e0a
p393
V\u3010\u603b\u76d1\u3011\u836f\u90fd\u519c\u5546\u884c \u738b\u96e8\u5357(373348051)  14:41:53\u000a \u501f\u9694\u591c\u8d44\u91d14\u4ebf\u5143\uff0c\u62bc\u4e0a\u6e05\u5b58\u5355\uff0c\u4e0a\u5348\u65e9\u8fd8\u6b3e
p394
V\u5229\u7387
p395
L43L
L60L
L1L
tp396
a(L1097L
V\u73ab
p397
V\u5c71\u897f\u9633\u66f2\u519c\u5546\u738b\u8212\u5fae.(3301465564)  14:39:23\u000a \u73ab\u7470\u8bda\u501f 1-7\u5929  2\u4ebf\uff0c\u6c42\u5c0f\u7a97\u73ab\u7470\u73ab\u7470
p398
V\u8d2d\u4e70\u65b9\u5f0f
p399
L64L
L65L
L7L
tp400
a(L1096L
V\u7470
p401
V\u5c71\u897f\u9633\u66f2\u519c\u5546\u738b\u8212\u5fae.(3301465564)  14:39:23\u000a \u73ab\u7470\u8bda\u501f 1-7\u5929  2\u4ebf\uff0c\u6c42\u5c0f\u7a97\u73ab\u7470\u73ab\u7470
p402
V\u8bc4\u7ea7
p403
L67L
L68L
L8L
tp404
a(L934L
V\u53d1\u884c
p405
V\u3010\u526f\u603b\u3011\u7ca4\u95f5\u8d44\u7ba1\u666f\u5360(176148371)  14:32:23\u000a \u6211\u90e8\u53d1\u884c\u5e02\u7ea7\u653f\u5e9c\u5e73\u53f0\u4e3b\u52a8\u7ba1\u7406\u578b\u96c6\u5408\u4fe1\u6258~~\u627e\u91d1\u4e3b\u54e6\uff01\uff0c\u671f\u96502\u5e74\uff0cAA\u8bc4\u7ea7\u4e3b\u4f53\uff0cAA\u8bc4\u7ea7\u62c5\u4fdd\uff0c\u653f\u5e9c\u51fa\u51fd\uff0c\u8db3\u989d\u5e94\u6536\u8d26\u6b3e\u8d28\u62bc\u7b49\u7b49\u589e\u4fe1\u63aa\u65bd\uff0c\u6b22\u8fce\u4e0e\u6211\u90e8\u63a5\u6d3d\uff0c\u6211\u90e8\u5df2\u5907\u597d"\u4e30\u539a\u8336\u6c34\u201c@\u6240\u6709\u4eba
p406
V\u65b9\u5411
p407
L48L
L50L
L1L
tp408
a(L935L
V2\u5e74
p409
V\u3010\u526f\u603b\u3011\u7ca4\u95f5\u8d44\u7ba1\u666f\u5360(176148371)  14:32:23\u000a \u6211\u90e8\u53d1\u884c\u5e02\u7ea7\u653f\u5e9c\u5e73\u53f0\u4e3b\u52a8\u7ba1\u7406\u578b\u96c6\u5408\u4fe1\u6258~~\u627e\u91d1\u4e3b\u54e6\uff01\uff0c\u671f\u96502\u5e74\uff0cAA\u8bc4\u7ea7\u4e3b\u4f53\uff0cAA\u8bc4\u7ea7\u62c5\u4fdd\uff0c\u653f\u5e9c\u51fa\u51fd\uff0c\u8db3\u989d\u5e94\u6536\u8d26\u6b3e\u8d28\u62bc\u7b49\u7b49\u589e\u4fe1\u63aa\u65bd\uff0c\u6b22\u8fce\u4e0e\u6211\u90e8\u63a5\u6d3d\uff0c\u6211\u90e8\u5df2\u5907\u597d"\u4e30\u539a\u8336\u6c34\u201c@\u6240\u6709\u4eba
p410
V\u671f\u9650
p411
L75L
L77L
L2L
tp412
a(L936L
V\u6536
p413
V\u3010\u7ecf\u7406\u3011\u9648\u7acb\u5e7f\uff08\u5510\u5c71\u94f6\u884c\uff09(94696767)  14:32:17\u000a \u5510\u5c71\u94f6\u884c\uff081900\u4ebf+\u57ce\u5546\u884c\uff09\u8fd1\u671f\u4e1a\u52a1\uff1a\u000a1.\u3010\u6536\u3011\u6536\u8d44\u91d1\uff0c\u6536\u8d44\u91d1\uff0c\u6536\u8d44\u91d1\uff0c\u4efb\u610f\u671f\u9650\uff0c\u4ef7\u683c\u7f8e\u4e3d\u3002\u6b22\u8fce\u5404\u4f4d\u9886\u5bfc\u540c\u4e8b\u5c0f\u7a97\u3002\u000a2.\u3010\u51fa\u3011\u5404\u671f\u9650\u9ad8\u9ad8\u9ad8\u4ef7\u7406\u8d22\uff084.6%-4.8%\uff09\u000a\u8054\u7cfb\u4eba\uff1a\u9648\u7acb\u5e7f\uff0c\u7535\u8bdd\uff1a15176574515\uff08\u5fae\u4fe1\u540c\u53f7\uff09\u000a            \u67f3\u6e05\uff1a15130574269
p414
V\u65b9\u5411
p415
L72L
L73L
L2L
tp416
a(L937L
V\u51fa
p417
V\u3010\u7ecf\u7406\u3011\u9648\u7acb\u5e7f\uff08\u5510\u5c71\u94f6\u884c\uff09(94696767)  14:32:17\u000a \u5510\u5c71\u94f6\u884c\uff081900\u4ebf+\u57ce\u5546\u884c\uff09\u8fd1\u671f\u4e1a\u52a1\uff1a\u000a1.\u3010\u6536\u3011\u6536\u8d44\u91d1\uff0c\u6536\u8d44\u91d1\uff0c\u6536\u8d44\u91d1\uff0c\u4efb\u610f\u671f\u9650\uff0c\u4ef7\u683c\u7f8e\u4e3d\u3002\u6b22\u8fce\u5404\u4f4d\u9886\u5bfc\u540c\u4e8b\u5c0f\u7a97\u3002\u000a2.\u3010\u51fa\u3011\u5404\u671f\u9650\u9ad8\u9ad8\u9ad8\u4ef7\u7406\u8d22\uff084.6%-4.8%\uff09\u000a\u8054\u7cfb\u4eba\uff1a\u9648\u7acb\u5e7f\uff0c\u7535\u8bdd\uff1a15176574515\uff08\u5fae\u4fe1\u540c\u53f7\uff09\u000a            \u67f3\u6e05\uff1a15130574269
p418
V\u65b9\u5411
p419
L111L
L112L
L5L
tp420
a(L938L
V\u8d44\u91d1
p421
V\u3010\u7ecf\u7406\u3011\u9648\u7acb\u5e7f\uff08\u5510\u5c71\u94f6\u884c\uff09(94696767)  14:32:17\u000a \u5510\u5c71\u94f6\u884c\uff081900\u4ebf+\u57ce\u5546\u884c\uff09\u8fd1\u671f\u4e1a\u52a1\uff1a\u000a1.\u3010\u6536\u3011\u6536\u8d44\u91d1\uff0c\u6536\u8d44\u91d1\uff0c\u6536\u8d44\u91d1\uff0c\u4efb\u610f\u671f\u9650\uff0c\u4ef7\u683c\u7f8e\u4e3d\u3002\u6b22\u8fce\u5404\u4f4d\u9886\u5bfc\u540c\u4e8b\u5c0f\u7a97\u3002\u000a2.\u3010\u51fa\u3011\u5404\u671f\u9650\u9ad8\u9ad8\u9ad8\u4ef7\u7406\u8d22\uff084.6%-4.8%\uff09\u000a\u8054\u7cfb\u4eba\uff1a\u9648\u7acb\u5e7f\uff0c\u7535\u8bdd\uff1a15176574515\uff08\u5fae\u4fe1\u540c\u53f7\uff09\u000a            \u67f3\u6e05\uff1a15130574269
p422
V\u4ea7\u54c1
p423
L75L
L77L
L3L
tp424
a(L939L
V\u4efb\u610f\u671f\u9650
p425
V\u3010\u7ecf\u7406\u3011\u9648\u7acb\u5e7f\uff08\u5510\u5c71\u94f6\u884c\uff09(94696767)  14:32:17\u000a \u5510\u5c71\u94f6\u884c\uff081900\u4ebf+\u57ce\u5546\u884c\uff09\u8fd1\u671f\u4e1a\u52a1\uff1a\u000a1.\u3010\u6536\u3011\u6536\u8d44\u91d1\uff0c\u6536\u8d44\u91d1\uff0c\u6536\u8d44\u91d1\uff0c\u4efb\u610f\u671f\u9650\uff0c\u4ef7\u683c\u7f8e\u4e3d\u3002\u6b22\u8fce\u5404\u4f4d\u9886\u5bfc\u540c\u4e8b\u5c0f\u7a97\u3002\u000a2.\u3010\u51fa\u3011\u5404\u671f\u9650\u9ad8\u9ad8\u9ad8\u4ef7\u7406\u8d22\uff084.6%-4.8%\uff09\u000a\u8054\u7cfb\u4eba\uff1a\u9648\u7acb\u5e7f\uff0c\u7535\u8bdd\uff1a15176574515\uff08\u5fae\u4fe1\u540c\u53f7\uff09\u000a            \u67f3\u6e05\uff1a15130574269
p426
V\u671f\u9650
p427
L86L
L90L
L4L
tp428
a(L940L
V4.6
p429
V\u3010\u7ecf\u7406\u3011\u9648\u7acb\u5e7f\uff08\u5510\u5c71\u94f6\u884c\uff09(94696767)  14:32:17\u000a \u5510\u5c71\u94f6\u884c\uff081900\u4ebf+\u57ce\u5546\u884c\uff09\u8fd1\u671f\u4e1a\u52a1\uff1a\u000a1.\u3010\u6536\u3011\u6536\u8d44\u91d1\uff0c\u6536\u8d44\u91d1\uff0c\u6536\u8d44\u91d1\uff0c\u4efb\u610f\u671f\u9650\uff0c\u4ef7\u683c\u7f8e\u4e3d\u3002\u6b22\u8fce\u5404\u4f4d\u9886\u5bfc\u540c\u4e8b\u5c0f\u7a97\u3002\u000a2.\u3010\u51fa\u3011\u5404\u671f\u9650\u9ad8\u9ad8\u9ad8\u4ef7\u7406\u8d22\uff084.6%-4.8%\uff09\u000a\u8054\u7cfb\u4eba\uff1a\u9648\u7acb\u5e7f\uff0c\u7535\u8bdd\uff1a15176574515\uff08\u5fae\u4fe1\u540c\u53f7\uff09\u000a            \u67f3\u6e05\uff1a15130574269
p430
V\u671f\u9650
p431
L123L
L126L
L6L
tp432
a(L941L
V4.8
p433
V\u3010\u7ecf\u7406\u3011\u9648\u7acb\u5e7f\uff08\u5510\u5c71\u94f6\u884c\uff09(94696767)  14:32:17\u000a \u5510\u5c71\u94f6\u884c\uff081900\u4ebf+\u57ce\u5546\u884c\uff09\u8fd1\u671f\u4e1a\u52a1\uff1a\u000a1.\u3010\u6536\u3011\u6536\u8d44\u91d1\uff0c\u6536\u8d44\u91d1\uff0c\u6536\u8d44\u91d1\uff0c\u4efb\u610f\u671f\u9650\uff0c\u4ef7\u683c\u7f8e\u4e3d\u3002\u6b22\u8fce\u5404\u4f4d\u9886\u5bfc\u540c\u4e8b\u5c0f\u7a97\u3002\u000a2.\u3010\u51fa\u3011\u5404\u671f\u9650\u9ad8\u9ad8\u9ad8\u4ef7\u7406\u8d22\uff084.6%-4.8%\uff09\u000a\u8054\u7cfb\u4eba\uff1a\u9648\u7acb\u5e7f\uff0c\u7535\u8bdd\uff1a15176574515\uff08\u5fae\u4fe1\u540c\u53f7\uff09\u000a            \u67f3\u6e05\uff1a15130574269
p434
V\u671f\u9650
p435
L128L
L131L
L7L
tp436
a(L942L
V1900\u4ebf
p437
V\u3010\u7ecf\u7406\u3011\u9648\u7acb\u5e7f\uff08\u5510\u5c71\u94f6\u884c\uff09(94696767)  14:32:17\u000a \u5510\u5c71\u94f6\u884c\uff081900\u4ebf+\u57ce\u5546\u884c\uff09\u8fd1\u671f\u4e1a\u52a1\uff1a\u000a1.\u3010\u6536\u3011\u6536\u8d44\u91d1\uff0c\u6536\u8d44\u91d1\uff0c\u6536\u8d44\u91d1\uff0c\u4efb\u610f\u671f\u9650\uff0c\u4ef7\u683c\u7f8e\u4e3d\u3002\u6b22\u8fce\u5404\u4f4d\u9886\u5bfc\u540c\u4e8b\u5c0f\u7a97\u3002\u000a2.\u3010\u51fa\u3011\u5404\u671f\u9650\u9ad8\u9ad8\u9ad8\u4ef7\u7406\u8d22\uff084.6%-4.8%\uff09\u000a\u8054\u7cfb\u4eba\uff1a\u9648\u7acb\u5e7f\uff0c\u7535\u8bdd\uff1a15176574515\uff08\u5fae\u4fe1\u540c\u53f7\uff09\u000a            \u67f3\u6e05\uff1a15130574269
p438
V\u91d1\u989d
p439
L53L
L58L
L1L
tp440
a(L949L
V\u000a \u501f
p441
V\u3010\u603b\u76d1\u3011\u4e34\u6cad\u519c\u5546\u9648\u8499\u8499(675162724)  14:34:00\u000a \u501f\u9694\u591c1\u4ebf\uff0c\u62bc\u5229\u7387\uff0c\u6c42\u5c0f\u7a97
p442
V\u65b9\u5411
p443
L45L
L48L
L1L
tp444
a(L950L
V\u62bc\u5229\u7387
p445
V\u3010\u603b\u76d1\u3011\u4e34\u6cad\u519c\u5546\u9648\u8499\u8499(675162724)  14:34:00\u000a \u501f\u9694\u591c1\u4ebf\uff0c\u62bc\u5229\u7387\uff0c\u6c42\u5c0f\u7a97
p446
V\u4ea7\u54c1
p447
L53L
L56L
L2L
tp448
a(L1087L
V\u8fce
p449
V\u5468\u73b2\u73b2\uff08\u62db\u884c\u676d\u5dde\uff09\u000a\u8bda\u51fa\u8de8\u6625\u8282\u6216\u4e24\u4e2a\u6708\u5185\u56de\u8d2d\uff0c\u91cf\u5927\uff0c\u6b22\u8fce\u5c0f\u7a97\u000a\u62db\u884c\u676d\u5206\u5468\u73b2\u73b213706516243
p450
V\u6295\u5411
p451
L40L
L41L
L6L
tp452
a(L1086L
V\u884c\u676d
p453
V\u5468\u73b2\u73b2\uff08\u62db\u884c\u676d\u5dde\uff09\u000a\u8bda\u51fa\u8de8\u6625\u8282\u6216\u4e24\u4e2a\u6708\u5185\u56de\u8d2d\uff0c\u91cf\u5927\uff0c\u6b22\u8fce\u5c0f\u7a97\u000a\u62db\u884c\u676d\u5206\u5468\u73b2\u73b213706516243
p454
V\u8bc4\u7ea7
p455
L45L
L47L
L7L
tp456
a(L1085L
V5
p457
V\u5468\u73b2\u73b2\uff08\u62db\u884c\u676d\u5dde\uff09\u000a\u8bda\u51fa\u8de8\u6625\u8282\u6216\u4e24\u4e2a\u6708\u5185\u56de\u8d2d\uff0c\u91cf\u5927\uff0c\u6b22\u8fce\u5c0f\u7a97\u000a\u62db\u884c\u676d\u5206\u5468\u73b2\u73b213706516243
p458
V\u5229\u7387
p459
L56L
L57L
L9L
tp460
a(L1084L
V1370
p461
V\u5468\u73b2\u73b2\uff08\u62db\u884c\u676d\u5dde\uff09\u000a\u8bda\u51fa\u8de8\u6625\u8282\u6216\u4e24\u4e2a\u6708\u5185\u56de\u8d2d\uff0c\u91cf\u5927\uff0c\u6b22\u8fce\u5c0f\u7a97\u000a\u62db\u884c\u676d\u5206\u5468\u73b2\u73b213706516243
p462
V\u91d1\u989d
p463
L51L
L55L
L8L
tp464
a(L961L
V\u9ad8
p465
V\u3010\u52a9\u7406\u3011\u9ad8\u5ca9-\u4e2d\u8bda\u5b9d\u6377\u601d(2355895332)  14:34:29\u000a \u51fa  AA\u5b58\u5355  3M4.95  \uff01\u000a\u51fa  AA\u5b58\u5355  3M4.95  \uff01\u000a\u51fa  AA\u5b58\u5355  3M4.95  \uff01
p466
V\u65b9\u5411
p467
L17L
L18L
L1L
tp468
a(L962L
V\u5ca9
p469
V\u3010\u52a9\u7406\u3011\u9ad8\u5ca9-\u4e2d\u8bda\u5b9d\u6377\u601d(2355895332)  14:34:29\u000a \u51fa  AA\u5b58\u5355  3M4.95  \uff01\u000a\u51fa  AA\u5b58\u5355  3M4.95  \uff01\u000a\u51fa  AA\u5b58\u5355  3M4.95  \uff01
p470
V\u4ea7\u54c1
p471
L18L
L19L
L2L
tp472
a(L963L
V\u4e2d
p473
V\u3010\u52a9\u7406\u3011\u9ad8\u5ca9-\u4e2d\u8bda\u5b9d\u6377\u601d(2355895332)  14:34:29\u000a \u51fa  AA\u5b58\u5355  3M4.95  \uff01\u000a\u51fa  AA\u5b58\u5355  3M4.95  \uff01\u000a\u51fa  AA\u5b58\u5355  3M4.95  \uff01
p474
V\u671f\u9650
p475
L20L
L21L
L3L
tp476
a(L964L
V\u8bda
p477
V\u3010\u52a9\u7406\u3011\u9ad8\u5ca9-\u4e2d\u8bda\u5b9d\u6377\u601d(2355895332)  14:34:29\u000a \u51fa  AA\u5b58\u5355  3M4.95  \uff01\u000a\u51fa  AA\u5b58\u5355  3M4.95  \uff01\u000a\u51fa  AA\u5b58\u5355  3M4.95  \uff01
p478
V\u91d1\u989d
p479
L21L
L22L
L4L
tp480
a(L965L
V\u5b9d
p481
V\u3010\u52a9\u7406\u3011\u9ad8\u5ca9-\u4e2d\u8bda\u5b9d\u6377\u601d(2355895332)  14:34:29\u000a \u51fa  AA\u5b58\u5355  3M4.95  \uff01\u000a\u51fa  AA\u5b58\u5355  3M4.95  \uff01\u000a\u51fa  AA\u5b58\u5355  3M4.95  \uff01
p482
V\u5229\u7387
p483
L22L
L23L
L5L
tp484
a(L981L
V\u501f
p485
V\u6e56\u6ee8\u519c\u5546\u884c\u8d75\u78ca(1307956997)  14:53:08\u000a 3.24\u501f7\u59291\u4ebf\uff0c\u62bc\u5229\u7387
p486
V\u4ea7\u54c1
p487
L48L
L49L
L1L
tp488
a(L982L
V\u501f
p489
V\u6e56\u6ee8\u519c\u5546\u884c\u8d75\u78ca(1307956997)  14:53:08\u000a 3.24\u501f7\u59291\u4ebf\uff0c\u62bc\u5229\u7387
p490
V\u4ea7\u54c1
p491
L48L
L49L
L1L
tp492
a(L983L
V7\u5929
p493
V\u6e56\u6ee8\u519c\u5546\u884c\u8d75\u78ca(1307956997)  14:53:08\u000a 3.24\u501f7\u59291\u4ebf\uff0c\u62bc\u5229\u7387
p494
V\u671f\u9650
p495
L49L
L51L
L2L
tp496
a(L984L
V7\u5929
p497
V\u6e56\u6ee8\u519c\u5546\u884c\u8d75\u78ca(1307956997)  14:53:08\u000a 3.24\u501f7\u59291\u4ebf\uff0c\u62bc\u5229\u7387
p498
V\u671f\u9650
p499
L49L
L51L
L2L
tp500
a(L985L
V1\u4ebf
p501
V\u6e56\u6ee8\u519c\u5546\u884c\u8d75\u78ca(1307956997)  14:53:08\u000a 3.24\u501f7\u59291\u4ebf\uff0c\u62bc\u5229\u7387
p502
V\u91d1\u989d
p503
L51L
L53L
L3L
tp504
a(L986L
V1\u4ebf
p505
V\u6e56\u6ee8\u519c\u5546\u884c\u8d75\u78ca(1307956997)  14:53:08\u000a 3.24\u501f7\u59291\u4ebf\uff0c\u62bc\u5229\u7387
p506
V\u91d1\u989d
p507
L51L
L53L
L3L
tp508
a(L987L
V\u5229\u7387
p509
V\u6e56\u6ee8\u519c\u5546\u884c\u8d75\u78ca(1307956997)  14:53:08\u000a 3.24\u501f7\u59291\u4ebf\uff0c\u62bc\u5229\u7387
p510
V\u5229\u7387
p511
L55L
L57L
L4L
tp512
a(L988L
V\u5229\u7387
p513
V\u6e56\u6ee8\u519c\u5546\u884c\u8d75\u78ca(1307956997)  14:53:08\u000a 3.24\u501f7\u59291\u4ebf\uff0c\u62bc\u5229\u7387
p514
V\u5229\u7387
p515
L55L
L57L
L4L
tp516
a(L1081L
V\u5468\u73b2\u73b2\uff08\u62db\u884c
p517
V\u5468\u73b2\u73b2\uff08\u62db\u884c\u676d\u5dde\uff09\u000a\u8bda\u51fa\u8de8\u6625\u8282\u6216\u4e24\u4e2a\u6708\u5185\u56de\u8d2d\uff0c\u91cf\u5927\uff0c\u6b22\u8fce\u5c0f\u7a97\u000a\u62db\u884c\u676d\u5206\u5468\u73b2\u73b213706516243
p518
V\u65b9\u5411
p519
L13L
L19L
L1L
tp520
a(L1082L
V\u8bda\u51fa
p521
V\u5468\u73b2\u73b2\uff08\u62db\u884c\u676d\u5dde\uff09\u000a\u8bda\u51fa\u8de8\u6625\u8282\u6216\u4e24\u4e2a\u6708\u5185\u56de\u8d2d\uff0c\u91cf\u5927\uff0c\u6b22\u8fce\u5c0f\u7a97\u000a\u62db\u884c\u676d\u5206\u5468\u73b2\u73b213706516243
p522
V\u4ea7\u54c1
p523
L23L
L25L
L2L
tp524
a(L1083L
V\u4e2a\u6708
p525
V\u5468\u73b2\u73b2\uff08\u62db\u884c\u676d\u5dde\uff09\u000a\u8bda\u51fa\u8de8\u6625\u8282\u6216\u4e24\u4e2a\u6708\u5185\u56de\u8d2d\uff0c\u91cf\u5927\uff0c\u6b22\u8fce\u5c0f\u7a97\u000a\u62db\u884c\u676d\u5206\u5468\u73b2\u73b213706516243
p526
V\u671f\u9650
p527
L30L
L32L
L3L
tp528
a(L1091L
V\u738b\u8212
p529
V\u5c71\u897f\u9633\u66f2\u519c\u5546\u738b\u8212\u5fae.(3301465564)  14:39:23\u000a \u73ab\u7470\u8bda\u501f 1-7\u5929  2\u4ebf\uff0c\u6c42\u5c0f\u7a97\u73ab\u7470\u73ab\u7470
p530
V\u4ea7\u54c1
p531
L19L
L21L
L2L
tp532
a(L1090L
V\u5c71\u897f\u9633
p533
V\u5c71\u897f\u9633\u66f2\u519c\u5546\u738b\u8212\u5fae.(3301465564)  14:39:23\u000a \u73ab\u7470\u8bda\u501f 1-7\u5929  2\u4ebf\uff0c\u6c42\u5c0f\u7a97\u73ab\u7470\u73ab\u7470
p534
V\u65b9\u5411
p535
L13L
L16L
L1L
tp536
a(L1089L
V\u56de
p537
V\u5468\u73b2\u73b2\uff08\u62db\u884c\u676d\u5dde\uff09\u000a\u8bda\u51fa\u8de8\u6625\u8282\u6216\u4e24\u4e2a\u6708\u5185\u56de\u8d2d\uff0c\u91cf\u5927\uff0c\u6b22\u8fce\u5c0f\u7a97\u000a\u62db\u884c\u676d\u5206\u5468\u73b2\u73b213706516243
p538
V\u6e05\u7b97\u901f\u5ea6
p539
L33L
L34L
L4L
tp540
a(L1088L
V\u5927
p541
V\u5468\u73b2\u73b2\uff08\u62db\u884c\u676d\u5dde\uff09\u000a\u8bda\u51fa\u8de8\u6625\u8282\u6216\u4e24\u4e2a\u6708\u5185\u56de\u8d2d\uff0c\u91cf\u5927\uff0c\u6b22\u8fce\u5c0f\u7a97\u000a\u62db\u884c\u676d\u5206\u5468\u73b2\u73b213706516243
p542
V\u8d2d\u4e70\u65b9\u5f0f
p543
L37L
L38L
L5L
tp544
a(L1112L
V\u975e\u94f6\u540c\u5b58
p545
V\u3010\u7fa4\u4e3b\u3011\u90ae\u50a8\u94f6\u884cMr.\u5434(1444568)  14:40:28\u000a \u4e3b\u63a8\u4e1a\u52a1\uff1a \u000a 1\u3001\u80a1\u7968\u8d28\u62bc\u5f0f\u56de\u8d2d\uff08\u542b\u573a\u5916\uff09\u3001\u5b9a\u589e\u000a 2\u3001\u6536\u76ca\u51ed\u8bc1 \u000a 3\u3001\u4e24\u878d \u000a 4\u3001\u51fa\u7406\u8d22 \uff0c\u51fa\u975e\u94f6\u540c\u5b58   \uff0c\u51fa\u540c\u5b58\u8d44\u91d1   \u000a\u672c\u4eba\u76ee\u524d\u5728\u603b\u884c\u8d44\u7ba1\u90e8\u505a\u4e0a\u8bc9\u4e1a\u52a1 \uff0c\u6b22\u8fce\u5404\u4f4d\u670b\u53cb\u63a5\u6d3d    \u90ae\u50a8\u94f6\u884c \u5434\u957f\u745e  17091558000
p546
V\u4ea7\u54c1
p547
L97L
L101L
L9L
tp548
a(L1111L
V\u7406\u8d22
p549
V\u3010\u7fa4\u4e3b\u3011\u90ae\u50a8\u94f6\u884cMr.\u5434(1444568)  14:40:28\u000a \u4e3b\u63a8\u4e1a\u52a1\uff1a \u000a 1\u3001\u80a1\u7968\u8d28\u62bc\u5f0f\u56de\u8d2d\uff08\u542b\u573a\u5916\uff09\u3001\u5b9a\u589e\u000a 2\u3001\u6536\u76ca\u51ed\u8bc1 \u000a 3\u3001\u4e24\u878d \u000a 4\u3001\u51fa\u7406\u8d22 \uff0c\u51fa\u975e\u94f6\u540c\u5b58   \uff0c\u51fa\u540c\u5b58\u8d44\u91d1   \u000a\u672c\u4eba\u76ee\u524d\u5728\u603b\u884c\u8d44\u7ba1\u90e8\u505a\u4e0a\u8bc9\u4e1a\u52a1 \uff0c\u6b22\u8fce\u5404\u4f4d\u670b\u53cb\u63a5\u6d3d    \u90ae\u50a8\u94f6\u884c \u5434\u957f\u745e  17091558000
p550
V\u4ea7\u54c1
p551
L92L
L94L
L7L
tp552
a(L1110L
V\u4e24\u878d 
p553
V\u3010\u7fa4\u4e3b\u3011\u90ae\u50a8\u94f6\u884cMr.\u5434(1444568)  14:40:28\u000a \u4e3b\u63a8\u4e1a\u52a1\uff1a \u000a 1\u3001\u80a1\u7968\u8d28\u62bc\u5f0f\u56de\u8d2d\uff08\u542b\u573a\u5916\uff09\u3001\u5b9a\u589e\u000a 2\u3001\u6536\u76ca\u51ed\u8bc1 \u000a 3\u3001\u4e24\u878d \u000a 4\u3001\u51fa\u7406\u8d22 \uff0c\u51fa\u975e\u94f6\u540c\u5b58   \uff0c\u51fa\u540c\u5b58\u8d44\u91d1   \u000a\u672c\u4eba\u76ee\u524d\u5728\u603b\u884c\u8d44\u7ba1\u90e8\u505a\u4e0a\u8bc9\u4e1a\u52a1 \uff0c\u6b22\u8fce\u5404\u4f4d\u670b\u53cb\u63a5\u6d3d    \u90ae\u50a8\u94f6\u884c \u5434\u957f\u745e  17091558000
p554
V\u4ea7\u54c1
p555
L84L
L87L
L5L
tp556
a(L1109L
V\u6536\u76ca\u51ed\u8bc1 
p557
V\u3010\u7fa4\u4e3b\u3011\u90ae\u50a8\u94f6\u884cMr.\u5434(1444568)  14:40:28\u000a \u4e3b\u63a8\u4e1a\u52a1\uff1a \u000a 1\u3001\u80a1\u7968\u8d28\u62bc\u5f0f\u56de\u8d2d\uff08\u542b\u573a\u5916\uff09\u3001\u5b9a\u589e\u000a 2\u3001\u6536\u76ca\u51ed\u8bc1 \u000a 3\u3001\u4e24\u878d \u000a 4\u3001\u51fa\u7406\u8d22 \uff0c\u51fa\u975e\u94f6\u540c\u5b58   \uff0c\u51fa\u540c\u5b58\u8d44\u91d1   \u000a\u672c\u4eba\u76ee\u524d\u5728\u603b\u884c\u8d44\u7ba1\u90e8\u505a\u4e0a\u8bc9\u4e1a\u52a1 \uff0c\u6b22\u8fce\u5404\u4f4d\u670b\u53cb\u63a5\u6d3d    \u90ae\u50a8\u94f6\u884c \u5434\u957f\u745e  17091558000
p558
V\u4ea7\u54c1
p559
L75L
L80L
L4L
tp560
a(L1105L
V\u51fa
p561
V\u3010\u7fa4\u4e3b\u3011\u90ae\u50a8\u94f6\u884cMr.\u5434(1444568)  14:40:28\u000a \u4e3b\u63a8\u4e1a\u52a1\uff1a \u000a 1\u3001\u80a1\u7968\u8d28\u62bc\u5f0f\u56de\u8d2d\uff08\u542b\u573a\u5916\uff09\u3001\u5b9a\u589e\u000a 2\u3001\u6536\u76ca\u51ed\u8bc1 \u000a 3\u3001\u4e24\u878d \u000a 4\u3001\u51fa\u7406\u8d22 \uff0c\u51fa\u975e\u94f6\u540c\u5b58   \uff0c\u51fa\u540c\u5b58\u8d44\u91d1   \u000a\u672c\u4eba\u76ee\u524d\u5728\u603b\u884c\u8d44\u7ba1\u90e8\u505a\u4e0a\u8bc9\u4e1a\u52a1 \uff0c\u6b22\u8fce\u5404\u4f4d\u670b\u53cb\u63a5\u6d3d    \u90ae\u50a8\u94f6\u884c \u5434\u957f\u745e  17091558000
p562
V\u65b9\u5411
p563
L96L
L97L
L8L
tp564
a(L1106L
V\u51fa
p565
V\u3010\u7fa4\u4e3b\u3011\u90ae\u50a8\u94f6\u884cMr.\u5434(1444568)  14:40:28\u000a \u4e3b\u63a8\u4e1a\u52a1\uff1a \u000a 1\u3001\u80a1\u7968\u8d28\u62bc\u5f0f\u56de\u8d2d\uff08\u542b\u573a\u5916\uff09\u3001\u5b9a\u589e\u000a 2\u3001\u6536\u76ca\u51ed\u8bc1 \u000a 3\u3001\u4e24\u878d \u000a 4\u3001\u51fa\u7406\u8d22 \uff0c\u51fa\u975e\u94f6\u540c\u5b58   \uff0c\u51fa\u540c\u5b58\u8d44\u91d1   \u000a\u672c\u4eba\u76ee\u524d\u5728\u603b\u884c\u8d44\u7ba1\u90e8\u505a\u4e0a\u8bc9\u4e1a\u52a1 \uff0c\u6b22\u8fce\u5404\u4f4d\u670b\u53cb\u63a5\u6d3d    \u90ae\u50a8\u94f6\u884c \u5434\u957f\u745e  17091558000
p566
V\u65b9\u5411
p567
L105L
L106L
L10L
tp568
a(L1107L
V\u80a1\u7968\u8d28\u62bc\u5f0f\u56de\u8d2d
p569
V\u3010\u7fa4\u4e3b\u3011\u90ae\u50a8\u94f6\u884cMr.\u5434(1444568)  14:40:28\u000a \u4e3b\u63a8\u4e1a\u52a1\uff1a \u000a 1\u3001\u80a1\u7968\u8d28\u62bc\u5f0f\u56de\u8d2d\uff08\u542b\u573a\u5916\uff09\u3001\u5b9a\u589e\u000a 2\u3001\u6536\u76ca\u51ed\u8bc1 \u000a 3\u3001\u4e24\u878d \u000a 4\u3001\u51fa\u7406\u8d22 \uff0c\u51fa\u975e\u94f6\u540c\u5b58   \uff0c\u51fa\u540c\u5b58\u8d44\u91d1   \u000a\u672c\u4eba\u76ee\u524d\u5728\u603b\u884c\u8d44\u7ba1\u90e8\u505a\u4e0a\u8bc9\u4e1a\u52a1 \uff0c\u6b22\u8fce\u5404\u4f4d\u670b\u53cb\u63a5\u6d3d    \u90ae\u50a8\u94f6\u884c \u5434\u957f\u745e  17091558000
p570
V\u4ea7\u54c1
p571
L56L
L63L
L2L
tp572
a(L1113L
V\u540c\u5b58\u8d44\u91d1
p573
V\u3010\u7fa4\u4e3b\u3011\u90ae\u50a8\u94f6\u884cMr.\u5434(1444568)  14:40:28\u000a \u4e3b\u63a8\u4e1a\u52a1\uff1a \u000a 1\u3001\u80a1\u7968\u8d28\u62bc\u5f0f\u56de\u8d2d\uff08\u542b\u573a\u5916\uff09\u3001\u5b9a\u589e\u000a 2\u3001\u6536\u76ca\u51ed\u8bc1 \u000a 3\u3001\u4e24\u878d \u000a 4\u3001\u51fa\u7406\u8d22 \uff0c\u51fa\u975e\u94f6\u540c\u5b58   \uff0c\u51fa\u540c\u5b58\u8d44\u91d1   \u000a\u672c\u4eba\u76ee\u524d\u5728\u603b\u884c\u8d44\u7ba1\u90e8\u505a\u4e0a\u8bc9\u4e1a\u52a1 \uff0c\u6b22\u8fce\u5404\u4f4d\u670b\u53cb\u63a5\u6d3d    \u90ae\u50a8\u94f6\u884c \u5434\u957f\u745e  17091558000
p574
V\u4ea7\u54c1
p575
L106L
L110L
L11L
tp576
a(L1119L
V\u670b\u53cb
p577
V\u3010\u7fa4\u4e3b\u3011\u90ae\u50a8\u94f6\u884cMr.\u5434(1444568)  14:40:28\u000a \u4e3b\u63a8\u4e1a\u52a1\uff1a \u000a 1\u3001\u80a1\u7968\u8d28\u62bc\u5f0f\u56de\u8d2d\uff08\u542b\u573a\u5916\uff09\u3001\u5b9a\u589e\u000a 2\u3001\u6536\u76ca\u51ed\u8bc1 \u000a 3\u3001\u4e24\u878d \u000a 4\u3001\u51fa\u7406\u8d22 \uff0c\u51fa\u975e\u94f6\u540c\u5b58   \uff0c\u51fa\u540c\u5b58\u8d44\u91d1   \u000a\u672c\u4eba\u76ee\u524d\u5728\u603b\u884c\u8d44\u7ba1\u90e8\u505a\u4e0a\u8bc9\u4e1a\u52a1 \uff0c\u6b22\u8fce\u5404\u4f4d\u670b\u53cb\u63a5\u6d3d    \u90ae\u50a8\u94f6\u884c \u5434\u957f\u745e  17091558000
p578
V\u6295\u5411
p579
L135L
L137L
L16L
tp580
a(L1118L
V\u90ae
p581
V\u3010\u7fa4\u4e3b\u3011\u90ae\u50a8\u94f6\u884cMr.\u5434(1444568)  14:40:28\u000a \u4e3b\u63a8\u4e1a\u52a1\uff1a \u000a 1\u3001\u80a1\u7968\u8d28\u62bc\u5f0f\u56de\u8d2d\uff08\u542b\u573a\u5916\uff09\u3001\u5b9a\u589e\u000a 2\u3001\u6536\u76ca\u51ed\u8bc1 \u000a 3\u3001\u4e24\u878d \u000a 4\u3001\u51fa\u7406\u8d22 \uff0c\u51fa\u975e\u94f6\u540c\u5b58   \uff0c\u51fa\u540c\u5b58\u8d44\u91d1   \u000a\u672c\u4eba\u76ee\u524d\u5728\u603b\u884c\u8d44\u7ba1\u90e8\u505a\u4e0a\u8bc9\u4e1a\u52a1 \uff0c\u6b22\u8fce\u5404\u4f4d\u670b\u53cb\u63a5\u6d3d    \u90ae\u50a8\u94f6\u884c \u5434\u957f\u745e  17091558000
p582
V\u8bc4\u7ea7
p583
L143L
L144L
L17L
tp584
a(L1117L
V\u94f6
p585
V\u3010\u7fa4\u4e3b\u3011\u90ae\u50a8\u94f6\u884cMr.\u5434(1444568)  14:40:28\u000a \u4e3b\u63a8\u4e1a\u52a1\uff1a \u000a 1\u3001\u80a1\u7968\u8d28\u62bc\u5f0f\u56de\u8d2d\uff08\u542b\u573a\u5916\uff09\u3001\u5b9a\u589e\u000a 2\u3001\u6536\u76ca\u51ed\u8bc1 \u000a 3\u3001\u4e24\u878d \u000a 4\u3001\u51fa\u7406\u8d22 \uff0c\u51fa\u975e\u94f6\u540c\u5b58   \uff0c\u51fa\u540c\u5b58\u8d44\u91d1   \u000a\u672c\u4eba\u76ee\u524d\u5728\u603b\u884c\u8d44\u7ba1\u90e8\u505a\u4e0a\u8bc9\u4e1a\u52a1 \uff0c\u6b22\u8fce\u5404\u4f4d\u670b\u53cb\u63a5\u6d3d    \u90ae\u50a8\u94f6\u884c \u5434\u957f\u745e  17091558000
p586
V\u5e01\u79cd
p587
L145L
L146L
L18L
tp588
a(L1116L
V58
p589
V\u3010\u7fa4\u4e3b\u3011\u90ae\u50a8\u94f6\u884cMr.\u5434(1444568)  14:40:28\u000a \u4e3b\u63a8\u4e1a\u52a1\uff1a \u000a 1\u3001\u80a1\u7968\u8d28\u62bc\u5f0f\u56de\u8d2d\uff08\u542b\u573a\u5916\uff09\u3001\u5b9a\u589e\u000a 2\u3001\u6536\u76ca\u51ed\u8bc1 \u000a 3\u3001\u4e24\u878d \u000a 4\u3001\u51fa\u7406\u8d22 \uff0c\u51fa\u975e\u94f6\u540c\u5b58   \uff0c\u51fa\u540c\u5b58\u8d44\u91d1   \u000a\u672c\u4eba\u76ee\u524d\u5728\u603b\u884c\u8d44\u7ba1\u90e8\u505a\u4e0a\u8bc9\u4e1a\u52a1 \uff0c\u6b22\u8fce\u5404\u4f4d\u670b\u53cb\u63a5\u6d3d    \u90ae\u50a8\u94f6\u884c \u5434\u957f\u745e  17091558000
p590
V\u5229\u7387
p591
L159L
L161L
L20L
tp592
a(L1115L
V  170
p593
V\u3010\u7fa4\u4e3b\u3011\u90ae\u50a8\u94f6\u884cMr.\u5434(1444568)  14:40:28\u000a \u4e3b\u63a8\u4e1a\u52a1\uff1a \u000a 1\u3001\u80a1\u7968\u8d28\u62bc\u5f0f\u56de\u8d2d\uff08\u542b\u573a\u5916\uff09\u3001\u5b9a\u589e\u000a 2\u3001\u6536\u76ca\u51ed\u8bc1 \u000a 3\u3001\u4e24\u878d \u000a 4\u3001\u51fa\u7406\u8d22 \uff0c\u51fa\u975e\u94f6\u540c\u5b58   \uff0c\u51fa\u540c\u5b58\u8d44\u91d1   \u000a\u672c\u4eba\u76ee\u524d\u5728\u603b\u884c\u8d44\u7ba1\u90e8\u505a\u4e0a\u8bc9\u4e1a\u52a1 \uff0c\u6b22\u8fce\u5404\u4f4d\u670b\u53cb\u63a5\u6d3d    \u90ae\u50a8\u94f6\u884c \u5434\u957f\u745e  17091558000
p594
V\u91d1\u989d
p595
L151L
L156L
L19L
tp596
a(L1114L
V\u5728\u603b\u884c\u8d44
p597
V\u3010\u7fa4\u4e3b\u3011\u90ae\u50a8\u94f6\u884cMr.\u5434(1444568)  14:40:28\u000a \u4e3b\u63a8\u4e1a\u52a1\uff1a \u000a 1\u3001\u80a1\u7968\u8d28\u62bc\u5f0f\u56de\u8d2d\uff08\u542b\u573a\u5916\uff09\u3001\u5b9a\u589e\u000a 2\u3001\u6536\u76ca\u51ed\u8bc1 \u000a 3\u3001\u4e24\u878d \u000a 4\u3001\u51fa\u7406\u8d22 \uff0c\u51fa\u975e\u94f6\u540c\u5b58   \uff0c\u51fa\u540c\u5b58\u8d44\u91d1   \u000a\u672c\u4eba\u76ee\u524d\u5728\u603b\u884c\u8d44\u7ba1\u90e8\u505a\u4e0a\u8bc9\u4e1a\u52a1 \uff0c\u6b22\u8fce\u5404\u4f4d\u670b\u53cb\u63a5\u6d3d    \u90ae\u50a8\u94f6\u884c \u5434\u957f\u745e  17091558000
p598
V\u91d1\u989d
p599
L118L
L122L
L12L
tp600
a.